---
triple:          'arm64-apple-darwin'
binary-path:     nc
relocations:
  - { offsetInCU: 0x3B, offset: 0x3B, size: 0x8, addend: 0x0, symName: _.str, symObjAddr: 0xB7E0, symBinAddr: 0x1000305C0, symSize: 0x0 }
  - { offsetInCU: 0x6B, offset: 0x6B, size: 0x8, addend: 0x0, symName: _.str.1, symObjAddr: 0xB800, symBinAddr: 0x1000305E0, symSize: 0x0 }
  - { offsetInCU: 0x88, offset: 0x88, size: 0x8, addend: 0x0, symName: _.str.2, symObjAddr: 0xB820, symBinAddr: 0x100030600, symSize: 0x0 }
  - { offsetInCU: 0xA5, offset: 0xA5, size: 0x8, addend: 0x0, symName: _.str.3, symObjAddr: 0xB840, symBinAddr: 0x100030620, symSize: 0x0 }
  - { offsetInCU: 0xC2, offset: 0xC2, size: 0x8, addend: 0x0, symName: _.str.4, symObjAddr: 0xB8A0, symBinAddr: 0x100030680, symSize: 0x0 }
  - { offsetInCU: 0xD3, offset: 0xD3, size: 0x8, addend: 0x0, symName: _.str.5, symObjAddr: 0xB8C0, symBinAddr: 0x1000306A0, symSize: 0x0 }
  - { offsetInCU: 0xE4, offset: 0xE4, size: 0x8, addend: 0x0, symName: _.str.6, symObjAddr: 0xB8E0, symBinAddr: 0x1000306C0, symSize: 0x0 }
  - { offsetInCU: 0x101, offset: 0x101, size: 0x8, addend: 0x0, symName: _.str.7, symObjAddr: 0xB900, symBinAddr: 0x1000306E0, symSize: 0x0 }
  - { offsetInCU: 0x112, offset: 0x112, size: 0x8, addend: 0x0, symName: _.str.8, symObjAddr: 0xB920, symBinAddr: 0x100030700, symSize: 0x0 }
  - { offsetInCU: 0x12F, offset: 0x12F, size: 0x8, addend: 0x0, symName: _.str.9, symObjAddr: 0xB940, symBinAddr: 0x100030720, symSize: 0x0 }
  - { offsetInCU: 0x14C, offset: 0x14C, size: 0x8, addend: 0x0, symName: _.str.10, symObjAddr: 0xB980, symBinAddr: 0x100030760, symSize: 0x0 }
  - { offsetInCU: 0x169, offset: 0x169, size: 0x8, addend: 0x0, symName: _.str.11, symObjAddr: 0xB9C0, symBinAddr: 0x1000307A0, symSize: 0x0 }
  - { offsetInCU: 0x1305C, offset: 0x1305C, size: 0x8, addend: 0x0, symName: __ZNSt3__124__put_character_sequenceB8ue170006IcNS_11char_traitsIcEEEERNS_13basic_ostreamIT_T0_EES7_PKS4_m, symObjAddr: 0x7AE4, symBinAddr: 0x100008F30, symSize: 0x744 }
  - { offsetInCU: 0x1476A, offset: 0x1476A, size: 0x8, addend: 0x0, symName: __ZNSt3__1lsB8ue170006IcNS_11char_traitsIcEENS_9allocatorIcEEEERNS_13basic_ostreamIT_T0_EES9_RKNS_12basic_stringIS6_S7_T1_EE, symObjAddr: 0x5BC, symBinAddr: 0x100001A08, symSize: 0x4C }
  - { offsetInCU: 0x14DB3, offset: 0x14DB3, size: 0x8, addend: 0x0, symName: __ZNSt3__1lsB8ue170006INS_11char_traitsIcEEEERNS_13basic_ostreamIcT_EES6_PKc, symObjAddr: 0x23F0, symBinAddr: 0x10000383C, symSize: 0x48 }
  - { offsetInCU: 0x14DF9, offset: 0x14DF9, size: 0x8, addend: 0x0, symName: __ZNSt3__14endlB8ue170006IcNS_11char_traitsIcEEEERNS_13basic_ostreamIT_T0_EES7_, symObjAddr: 0x2464, symBinAddr: 0x1000038B0, symSize: 0xD4 }
  - { offsetInCU: 0x14E39, offset: 0x14E39, size: 0x8, addend: 0x0, symName: __ZNSt3__17getlineB8ue170006IcNS_11char_traitsIcEENS_9allocatorIcEEEERNS_13basic_istreamIT_T0_EES9_RNS_12basic_stringIS6_S7_T1_EE, symObjAddr: 0x2564, symBinAddr: 0x1000039B0, symSize: 0xD8 }
  - { offsetInCU: 0x14E91, offset: 0x14E91, size: 0x8, addend: 0x0, symName: __ZNSt3__118__constexpr_strlenB8ue170006EPKc, symObjAddr: 0x3038, symBinAddr: 0x100004484, symSize: 0x24 }
  - { offsetInCU: 0x14EBD, offset: 0x14EBD, size: 0x8, addend: 0x0, symName: __ZNSt3__112__to_addressB8ue170006IN3ast11program_errEEEPT_S4_, symObjAddr: 0x396C, symBinAddr: 0x100004DB8, symSize: 0x14 }
  - { offsetInCU: 0x14EF2, offset: 0x14EF2, size: 0x8, addend: 0x0, symName: __ZNSt3__110destroy_atB8ue170006IN3ast11program_errELi0EEEvPT_, symObjAddr: 0x3980, symBinAddr: 0x100004DCC, symSize: 0x24 }
  - { offsetInCU: 0x14F29, offset: 0x14F29, size: 0x8, addend: 0x0, symName: __ZNSt3__112__destroy_atB8ue170006IN3ast11program_errELi0EEEvPT_, symObjAddr: 0x39A4, symBinAddr: 0x100004DF0, symSize: 0x24 }
  - { offsetInCU: 0x14F60, offset: 0x14F60, size: 0x8, addend: 0x0, symName: __ZNSt3__119__libcpp_deallocateB8ue170006EPvmm, symObjAddr: 0x3BDC, symBinAddr: 0x100005028, symSize: 0x60 }
  - { offsetInCU: 0x14FC5, offset: 0x14FC5, size: 0x8, addend: 0x0, symName: __ZNSt3__124__is_overaligned_for_newB8ue170006Em, symObjAddr: 0x3C3C, symBinAddr: 0x100005088, symSize: 0x20 }
  - { offsetInCU: 0x14FF3, offset: 0x14FF3, size: 0x8, addend: 0x0, symName: __ZNSt3__127__do_deallocate_handle_sizeB8ue170006IJSt11align_val_tEEEvPvmDpT_, symObjAddr: 0x3C5C, symBinAddr: 0x1000050A8, symSize: 0x30 }
  - { offsetInCU: 0x15046, offset: 0x15046, size: 0x8, addend: 0x0, symName: __ZNSt3__127__do_deallocate_handle_sizeB8ue170006IJEEEvPvmDpT_, symObjAddr: 0x3C8C, symBinAddr: 0x1000050D8, symSize: 0x28 }
  - { offsetInCU: 0x15084, offset: 0x15084, size: 0x8, addend: 0x0, symName: __ZNSt3__124__libcpp_operator_deleteB8ue170006IJPvSt11align_val_tEEEvDpT_, symObjAddr: 0x3CB4, symBinAddr: 0x100005100, symSize: 0x2C }
  - { offsetInCU: 0x150CD, offset: 0x150CD, size: 0x8, addend: 0x0, symName: __ZNSt3__124__libcpp_operator_deleteB8ue170006IJPvEEEvDpT_, symObjAddr: 0x3CE0, symBinAddr: 0x10000512C, symSize: 0x24 }
  - { offsetInCU: 0x15102, offset: 0x15102, size: 0x8, addend: 0x0, symName: __ZNSt3__112__to_addressB8ue170006IN11expressions12expr_literalEEEPT_S4_, symObjAddr: 0x463C, symBinAddr: 0x100005A88, symSize: 0x14 }
  - { offsetInCU: 0x15137, offset: 0x15137, size: 0x8, addend: 0x0, symName: __ZNSt3__110destroy_atB8ue170006IN11expressions12expr_literalELi0EEEvPT_, symObjAddr: 0x4650, symBinAddr: 0x100005A9C, symSize: 0x24 }
  - { offsetInCU: 0x1516E, offset: 0x1516E, size: 0x8, addend: 0x0, symName: __ZNSt3__112__destroy_atB8ue170006IN11expressions12expr_literalELi0EEEvPT_, symObjAddr: 0x4674, symBinAddr: 0x100005AC0, symSize: 0x10 }
  - { offsetInCU: 0x151A5, offset: 0x151A5, size: 0x8, addend: 0x0, symName: __ZNSt3__112__to_addressB8ue170006IN10statements4stmtEEEPT_S4_, symObjAddr: 0x5190, symBinAddr: 0x1000065DC, symSize: 0x14 }
  - { offsetInCU: 0x151DA, offset: 0x151DA, size: 0x8, addend: 0x0, symName: __ZNSt3__110destroy_atB8ue170006IN10statements4stmtELi0EEEvPT_, symObjAddr: 0x51A4, symBinAddr: 0x1000065F0, symSize: 0x24 }
  - { offsetInCU: 0x15211, offset: 0x15211, size: 0x8, addend: 0x0, symName: __ZNSt3__112__destroy_atB8ue170006IN10statements4stmtELi0EEEvPT_, symObjAddr: 0x51C8, symBinAddr: 0x100006614, symSize: 0x10 }
  - { offsetInCU: 0x15248, offset: 0x15248, size: 0x8, addend: 0x0, symName: __ZNSt3__112__to_addressB8ue170006IN6tokens5tokenEEEPT_S4_, symObjAddr: 0x5CD0, symBinAddr: 0x10000711C, symSize: 0x14 }
  - { offsetInCU: 0x1527D, offset: 0x1527D, size: 0x8, addend: 0x0, symName: __ZNSt3__110destroy_atB8ue170006IN6tokens5tokenELi0EEEvPT_, symObjAddr: 0x5CE4, symBinAddr: 0x100007130, symSize: 0x24 }
  - { offsetInCU: 0x152B4, offset: 0x152B4, size: 0x8, addend: 0x0, symName: __ZNSt3__112__destroy_atB8ue170006IN6tokens5tokenELi0EEEvPT_, symObjAddr: 0x5D08, symBinAddr: 0x100007154, symSize: 0x10 }
  - { offsetInCU: 0x152EB, offset: 0x152EB, size: 0x8, addend: 0x0, symName: __ZNSt3__1eqB8ue170006IcNS_11char_traitsIcEEEEbRKNS_19istreambuf_iteratorIT_T0_EES8_, symObjAddr: 0x6D14, symBinAddr: 0x100008160, symSize: 0x30 }
  - { offsetInCU: 0x15337, offset: 0x15337, size: 0x8, addend: 0x0, symName: __ZNSt3__116__pad_and_outputB8ue170006IcNS_11char_traitsIcEEEENS_19ostreambuf_iteratorIT_T0_EES6_PKS4_S8_S8_RNS_8ios_baseES4_, symObjAddr: 0x82B0, symBinAddr: 0x1000096FC, symSize: 0x760 }
  - { offsetInCU: 0x15414, offset: 0x15414, size: 0x8, addend: 0x0, symName: __ZNSt3__112__to_addressB8ue170006IcEEPT_S2_, symObjAddr: 0x914C, symBinAddr: 0x10000A598, symSize: 0x14 }
  - { offsetInCU: 0x15449, offset: 0x15449, size: 0x8, addend: 0x0, symName: __ZNSt3__19use_facetB8ue170006INS_5ctypeIcEEEERKT_RKNS_6localeE, symObjAddr: 0x9628, symBinAddr: 0x10000AA74, symSize: 0x2C }
  - { offsetInCU: 0x15916, offset: 0x15916, size: 0x8, addend: 0x0, symName: __ZNSt3__112__to_addressB8ue170006IKcEEPT_S3_, symObjAddr: 0x9828, symBinAddr: 0x10000AC74, symSize: 0x14 }
  - { offsetInCU: 0x1597E, offset: 0x1597E, size: 0x8, addend: 0x0, symName: __ZNSt3__17getlineB8ue170006IcNS_11char_traitsIcEENS_9allocatorIcEEEERNS_13basic_istreamIT_T0_EES9_RNS_12basic_stringIS6_S7_T1_EES6_, symObjAddr: 0xA244, symBinAddr: 0x10000B690, symSize: 0x688 }
  - { offsetInCU: 0x19514, offset: 0x19514, size: 0x8, addend: 0x0, symName: __Z3logNSt3__112basic_stringIcNS_11char_traitsIcEENS_9allocatorIcEEEE, symObjAddr: 0x0, symBinAddr: 0x10000144C, symSize: 0x10 }
  - { offsetInCU: 0x1953D, offset: 0x1953D, size: 0x8, addend: 0x0, symName: __Z13write_and_runNSt3__112basic_stringIcNS_11char_traitsIcEENS_9allocatorIcEEEE, symObjAddr: 0x10, symBinAddr: 0x10000145C, symSize: 0x300 }
  - { offsetInCU: 0x19613, offset: 0x19613, size: 0x8, addend: 0x0, symName: __ZNSt3__114basic_ofstreamIcNS_11char_traitsIcEEEC1EPKcj, symObjAddr: 0x310, symBinAddr: 0x10000175C, symSize: 0x2AC }
  - { offsetInCU: 0x1965D, offset: 0x1965D, size: 0x8, addend: 0x0, symName: __ZNSt3__114basic_ofstreamIcNS_11char_traitsIcEEE5closeEv, symObjAddr: 0x608, symBinAddr: 0x100001A54, symSize: 0xD4 }
  - { offsetInCU: 0x1968A, offset: 0x1968A, size: 0x8, addend: 0x0, symName: __ZNSt3__114basic_ofstreamIcNS_11char_traitsIcEEED1Ev, symObjAddr: 0x6DC, symBinAddr: 0x100001B28, symSize: 0x40 }
  - { offsetInCU: 0x196B6, offset: 0x196B6, size: 0x8, addend: 0x0, symName: __Z3runNSt3__112basic_stringIcNS_11char_traitsIcEENS_9allocatorIcEEEE, symObjAddr: 0x71C, symBinAddr: 0x100001B68, symSize: 0x79C }
  - { offsetInCU: 0x19730, offset: 0x19730, size: 0x8, addend: 0x0, symName: __ZN8scanning7scanner4makeEPNSt3__112basic_stringIcNS1_11char_traitsIcEENS1_9allocatorIcEEEE, symObjAddr: 0xEB8, symBinAddr: 0x100002304, symSize: 0x12C }
  - { offsetInCU: 0x19758, offset: 0x19758, size: 0x8, addend: 0x0, symName: __ZNSt3__112basic_stringIcNS_11char_traitsIcEENS_9allocatorIcEEEC1B8ue170006ILi0EEEPKc, symObjAddr: 0xFE4, symBinAddr: 0x100002430, symSize: 0x34 }
  - { offsetInCU: 0x19823, offset: 0x19823, size: 0x8, addend: 0x0, symName: __ZN6tokens10token_iter4makeEPNSt3__16vectorINS_5tokenENS1_9allocatorIS3_EEEE, symObjAddr: 0x1018, symBinAddr: 0x100002464, symSize: 0x26C }
  - { offsetInCU: 0x19851, offset: 0x19851, size: 0x8, addend: 0x0, symName: __ZN3ast7programD1Ev, symObjAddr: 0x1284, symBinAddr: 0x1000026D0, symSize: 0x2C }
  - { offsetInCU: 0x1987D, offset: 0x1987D, size: 0x8, addend: 0x0, symName: __ZN8scanning7scannerD1Ev, symObjAddr: 0x12B0, symBinAddr: 0x1000026FC, symSize: 0x2C }
  - { offsetInCU: 0x198A8, offset: 0x198A8, size: 0x8, addend: 0x0, symName: __Z8load_srcNSt3__112basic_stringIcNS_11char_traitsIcEENS_9allocatorIcEEEE, symObjAddr: 0x12DC, symBinAddr: 0x100002728, symSize: 0x564 }
  - { offsetInCU: 0x19903, offset: 0x19903, size: 0x8, addend: 0x0, symName: __ZNSt3__114basic_ifstreamIcNS_11char_traitsIcEEEC1ERKNS_12basic_stringIcS2_NS_9allocatorIcEEEEj, symObjAddr: 0x1840, symBinAddr: 0x100002C8C, symSize: 0x2AC }
  - { offsetInCU: 0x1994D, offset: 0x1994D, size: 0x8, addend: 0x0, symName: __ZNKSt3__19basic_iosIcNS_11char_traitsIcEEEntB8ue170006Ev, symObjAddr: 0x1AEC, symBinAddr: 0x100002F38, symSize: 0x28 }
  - { offsetInCU: 0x19973, offset: 0x19973, size: 0x8, addend: 0x0, symName: __ZNSt3__119istreambuf_iteratorIcNS_11char_traitsIcEEEC1B8ue170006ERNS_13basic_istreamIcS2_EE, symObjAddr: 0x1B14, symBinAddr: 0x100002F60, symSize: 0x34 }
  - { offsetInCU: 0x199AB, offset: 0x199AB, size: 0x8, addend: 0x0, symName: __ZNSt3__119istreambuf_iteratorIcNS_11char_traitsIcEEEC1B8ue170006Ev, symObjAddr: 0x1B48, symBinAddr: 0x100002F94, symSize: 0x2C }
  - { offsetInCU: 0x199D5, offset: 0x199D5, size: 0x8, addend: 0x0, symName: __ZNSt3__112basic_stringIcNS_11char_traitsIcEENS_9allocatorIcEEEC1B8ue170006INS_19istreambuf_iteratorIcS2_EELi0EEET_S9_, symObjAddr: 0x1B74, symBinAddr: 0x100002FC0, symSize: 0x2FC }
  - { offsetInCU: 0x19A3A, offset: 0x19A3A, size: 0x8, addend: 0x0, symName: __ZNSt3__114basic_ifstreamIcNS_11char_traitsIcEEED1Ev, symObjAddr: 0x1E70, symBinAddr: 0x1000032BC, symSize: 0x40 }
  - { offsetInCU: 0x19A67, offset: 0x19A67, size: 0x8, addend: 0x0, symName: _main, symObjAddr: 0x1EB0, symBinAddr: 0x1000032FC, symSize: 0x540 }
  - { offsetInCU: 0x19AD3, offset: 0x19AD3, size: 0x8, addend: 0x0, symName: __ZNSt3__113basic_ostreamIcNS_11char_traitsIcEEElsB8ue170006EPFRS3_S4_E, symObjAddr: 0x2438, symBinAddr: 0x100003884, symSize: 0x2C }
  - { offsetInCU: 0x19B07, offset: 0x19B07, size: 0x8, addend: 0x0, symName: __ZNSt3__112basic_stringIcNS_11char_traitsIcEENS_9allocatorIcEEEC1B8ue170006Ev, symObjAddr: 0x2538, symBinAddr: 0x100003984, symSize: 0x2C }
  - { offsetInCU: 0x19B31, offset: 0x19B31, size: 0x8, addend: 0x0, symName: __ZNSt3__114basic_ofstreamIcNS_11char_traitsIcEEED2Ev, symObjAddr: 0x263C, symBinAddr: 0x100003A88, symSize: 0x198 }
  - { offsetInCU: 0x19B6B, offset: 0x19B6B, size: 0x8, addend: 0x0, symName: __ZTv0_n24_NSt3__114basic_ofstreamIcNS_11char_traitsIcEEED1Ev, symObjAddr: 0x27D4, symBinAddr: 0x100003C20, symSize: 0xB0 }
  - { offsetInCU: 0x19B82, offset: 0x19B82, size: 0x8, addend: 0x0, symName: __ZNSt3__16vectorIN6tokens5tokenENS_9allocatorIS2_EEEC1B8ue170006Ev, symObjAddr: 0x2884, symBinAddr: 0x100003CD0, symSize: 0x2C }
  - { offsetInCU: 0x19BAC, offset: 0x19BAC, size: 0x8, addend: 0x0, symName: __ZNSt3__16vectorIN6tokens5tokenENS_9allocatorIS2_EEEC2B8ue170006Ev, symObjAddr: 0x28B0, symBinAddr: 0x100003CFC, symSize: 0x2E8 }
  - { offsetInCU: 0x19BE1, offset: 0x19BE1, size: 0x8, addend: 0x0, symName: __ZNSt3__117__compressed_pairIPN6tokens5tokenENS_9allocatorIS2_EEEC1B8ue170006IDnNS_18__default_init_tagEEEOT_OT0_, symObjAddr: 0x2B98, symBinAddr: 0x100003FE4, symSize: 0x3C }
  - { offsetInCU: 0x19C39, offset: 0x19C39, size: 0x8, addend: 0x0, symName: __ZNSt3__117__compressed_pairIPN6tokens5tokenENS_9allocatorIS2_EEEC2B8ue170006IDnNS_18__default_init_tagEEEOT_OT0_, symObjAddr: 0x2BE0, symBinAddr: 0x10000402C, symSize: 0x40 }
  - { offsetInCU: 0x19C91, offset: 0x19C91, size: 0x8, addend: 0x0, symName: __ZNSt3__122__compressed_pair_elemIPN6tokens5tokenELi0ELb0EEC2B8ue170006IDnvEEOT_, symObjAddr: 0x2C20, symBinAddr: 0x10000406C, symSize: 0x64 }
  - { offsetInCU: 0x19CD3, offset: 0x19CD3, size: 0x8, addend: 0x0, symName: __ZNSt3__122__compressed_pair_elemINS_9allocatorIN6tokens5tokenEEELi1ELb1EEC2B8ue170006ENS_18__default_init_tagE, symObjAddr: 0x2C84, symBinAddr: 0x1000040D0, symSize: 0x2C }
  - { offsetInCU: 0x19D08, offset: 0x19D08, size: 0x8, addend: 0x0, symName: __ZNSt3__19allocatorIN6tokens5tokenEEC2B8ue170006Ev, symObjAddr: 0x2CB0, symBinAddr: 0x1000040FC, symSize: 0x2C }
  - { offsetInCU: 0x19D32, offset: 0x19D32, size: 0x8, addend: 0x0, symName: __ZNSt3__116__non_trivial_ifILb1ENS_9allocatorIN6tokens5tokenEEEEC2B8ue170006Ev, symObjAddr: 0x2CDC, symBinAddr: 0x100004128, symSize: 0x14 }
  - { offsetInCU: 0x19D5C, offset: 0x19D5C, size: 0x8, addend: 0x0, symName: __ZNSt3__112basic_stringIcNS_11char_traitsIcEENS_9allocatorIcEEEC2B8ue170006ILi0EEEPKc, symObjAddr: 0x2CF0, symBinAddr: 0x10000413C, symSize: 0x210 }
  - { offsetInCU: 0x19D9D, offset: 0x19D9D, size: 0x8, addend: 0x0, symName: __ZNSt3__117__compressed_pairINS_12basic_stringIcNS_11char_traitsIcEENS_9allocatorIcEEE5__repES5_EC1B8ue170006INS_18__default_init_tagESA_EEOT_OT0_, symObjAddr: 0x2F00, symBinAddr: 0x10000434C, symSize: 0x3C }
  - { offsetInCU: 0x19DF5, offset: 0x19DF5, size: 0x8, addend: 0x0, symName: __ZNSt3__111char_traitsIcE6lengthB8ue170006EPKc, symObjAddr: 0x2F3C, symBinAddr: 0x100004388, symSize: 0x40 }
  - { offsetInCU: 0x19E18, offset: 0x19E18, size: 0x8, addend: 0x0, symName: __ZNSt3__117__compressed_pairINS_12basic_stringIcNS_11char_traitsIcEENS_9allocatorIcEEE5__repES5_EC2B8ue170006INS_18__default_init_tagESA_EEOT_OT0_, symObjAddr: 0x2F7C, symBinAddr: 0x1000043C8, symSize: 0x3C }
  - { offsetInCU: 0x19E70, offset: 0x19E70, size: 0x8, addend: 0x0, symName: __ZNSt3__122__compressed_pair_elemINS_12basic_stringIcNS_11char_traitsIcEENS_9allocatorIcEEE5__repELi0ELb0EEC2B8ue170006ENS_18__default_init_tagE, symObjAddr: 0x2FB8, symBinAddr: 0x100004404, symSize: 0x14 }
  - { offsetInCU: 0x19EA5, offset: 0x19EA5, size: 0x8, addend: 0x0, symName: __ZNSt3__122__compressed_pair_elemINS_9allocatorIcEELi1ELb1EEC2B8ue170006ENS_18__default_init_tagE, symObjAddr: 0x2FCC, symBinAddr: 0x100004418, symSize: 0x2C }
  - { offsetInCU: 0x19EDA, offset: 0x19EDA, size: 0x8, addend: 0x0, symName: __ZNSt3__19allocatorIcEC2B8ue170006Ev, symObjAddr: 0x2FF8, symBinAddr: 0x100004444, symSize: 0x2C }
  - { offsetInCU: 0x19F04, offset: 0x19F04, size: 0x8, addend: 0x0, symName: __ZNSt3__116__non_trivial_ifILb1ENS_9allocatorIcEEEC2B8ue170006Ev, symObjAddr: 0x3024, symBinAddr: 0x100004470, symSize: 0x14 }
  - { offsetInCU: 0x19F2E, offset: 0x19F2E, size: 0x8, addend: 0x0, symName: __ZN3ast7programD2Ev, symObjAddr: 0x305C, symBinAddr: 0x1000044A8, symSize: 0x44 }
  - { offsetInCU: 0x19F5A, offset: 0x19F5A, size: 0x8, addend: 0x0, symName: __ZNSt3__16vectorIN3ast11program_errENS_9allocatorIS2_EEED1B8ue170006Ev, symObjAddr: 0x30A0, symBinAddr: 0x1000044EC, symSize: 0x2C }
  - { offsetInCU: 0x19F84, offset: 0x19F84, size: 0x8, addend: 0x0, symName: __ZN11expressions21expressions_containerD1Ev, symObjAddr: 0x30CC, symBinAddr: 0x100004518, symSize: 0x2C }
  - { offsetInCU: 0x19FB5, offset: 0x19FB5, size: 0x8, addend: 0x0, symName: __ZN10statements14stmt_containerD1Ev, symObjAddr: 0x30F8, symBinAddr: 0x100004544, symSize: 0x2C }
  - { offsetInCU: 0x19FE1, offset: 0x19FE1, size: 0x8, addend: 0x0, symName: __ZNSt3__16vectorIN3ast11program_errENS_9allocatorIS2_EEED2B8ue170006Ev, symObjAddr: 0x3124, symBinAddr: 0x100004570, symSize: 0x1F8 }
  - { offsetInCU: 0x1A00C, offset: 0x1A00C, size: 0x8, addend: 0x0, symName: __ZNSt3__16vectorIN3ast11program_errENS_9allocatorIS2_EEE16__destroy_vectorC1B8ue170006ERS5_, symObjAddr: 0x331C, symBinAddr: 0x100004768, symSize: 0x34 }
  - { offsetInCU: 0x1A045, offset: 0x1A045, size: 0x8, addend: 0x0, symName: __ZNSt3__16vectorIN3ast11program_errENS_9allocatorIS2_EEE16__destroy_vectorclB8ue170006Ev, symObjAddr: 0x3350, symBinAddr: 0x10000479C, symSize: 0x228 }
  - { offsetInCU: 0x1A06B, offset: 0x1A06B, size: 0x8, addend: 0x0, symName: __ZNSt3__16vectorIN3ast11program_errENS_9allocatorIS2_EEE16__destroy_vectorC2B8ue170006ERS5_, symObjAddr: 0x3578, symBinAddr: 0x1000049C4, symSize: 0x70 }
  - { offsetInCU: 0x1A0A4, offset: 0x1A0A4, size: 0x8, addend: 0x0, symName: __ZNSt3__16vectorIN3ast11program_errENS_9allocatorIS2_EEE7__clearB8ue170006Ev, symObjAddr: 0x35E8, symBinAddr: 0x100004A34, symSize: 0x64 }
  - { offsetInCU: 0x1A0CA, offset: 0x1A0CA, size: 0x8, addend: 0x0, symName: __ZNKSt3__16vectorIN3ast11program_errENS_9allocatorIS2_EEE17__annotate_deleteB8ue170006Ev, symObjAddr: 0x364C, symBinAddr: 0x100004A98, symSize: 0xCC }
  - { offsetInCU: 0x1A0F0, offset: 0x1A0F0, size: 0x8, addend: 0x0, symName: __ZNSt3__116allocator_traitsINS_9allocatorIN3ast11program_errEEEE10deallocateB8ue170006ERS4_PS3_m, symObjAddr: 0x3718, symBinAddr: 0x100004B64, symSize: 0x34 }
  - { offsetInCU: 0x1A132, offset: 0x1A132, size: 0x8, addend: 0x0, symName: __ZNSt3__16vectorIN3ast11program_errENS_9allocatorIS2_EEE7__allocB8ue170006Ev, symObjAddr: 0x374C, symBinAddr: 0x100004B98, symSize: 0x28 }
  - { offsetInCU: 0x1A158, offset: 0x1A158, size: 0x8, addend: 0x0, symName: __ZNKSt3__16vectorIN3ast11program_errENS_9allocatorIS2_EEE8capacityB8ue170006Ev, symObjAddr: 0x3774, symBinAddr: 0x100004BC0, symSize: 0xBC }
  - { offsetInCU: 0x1A17E, offset: 0x1A17E, size: 0x8, addend: 0x0, symName: __ZNSt3__16vectorIN3ast11program_errENS_9allocatorIS2_EEE22__base_destruct_at_endB8ue170006EPS2_, symObjAddr: 0x3830, symBinAddr: 0x100004C7C, symSize: 0x114 }
  - { offsetInCU: 0x1A1C2, offset: 0x1A1C2, size: 0x8, addend: 0x0, symName: __ZNSt3__116allocator_traitsINS_9allocatorIN3ast11program_errEEEE7destroyB8ue170006IS3_vvEEvRS4_PT_, symObjAddr: 0x3944, symBinAddr: 0x100004D90, symSize: 0x28 }
  - { offsetInCU: 0x1A202, offset: 0x1A202, size: 0x8, addend: 0x0, symName: __ZN3ast11program_errD1Ev, symObjAddr: 0x39C8, symBinAddr: 0x100004E14, symSize: 0x2C }
  - { offsetInCU: 0x1A22E, offset: 0x1A22E, size: 0x8, addend: 0x0, symName: __ZN3ast11program_errD2Ev, symObjAddr: 0x39F4, symBinAddr: 0x100004E40, symSize: 0x30 }
  - { offsetInCU: 0x1A25A, offset: 0x1A25A, size: 0x8, addend: 0x0, symName: __ZNKSt3__16vectorIN3ast11program_errENS_9allocatorIS2_EEE31__annotate_contiguous_containerEPKvS7_S7_S7_, symObjAddr: 0x3A24, symBinAddr: 0x100004E70, symSize: 0x58 }
  - { offsetInCU: 0x1A2BC, offset: 0x1A2BC, size: 0x8, addend: 0x0, symName: __ZNKSt3__16vectorIN3ast11program_errENS_9allocatorIS2_EEE4dataB8ue170006Ev, symObjAddr: 0x3A7C, symBinAddr: 0x100004EC8, symSize: 0x64 }
  - { offsetInCU: 0x1A2E2, offset: 0x1A2E2, size: 0x8, addend: 0x0, symName: __ZNKSt3__16vectorIN3ast11program_errENS_9allocatorIS2_EEE4sizeB8ue170006Ev, symObjAddr: 0x3AE0, symBinAddr: 0x100004F2C, symSize: 0xB0 }
  - { offsetInCU: 0x1A308, offset: 0x1A308, size: 0x8, addend: 0x0, symName: __ZNSt3__19allocatorIN3ast11program_errEE10deallocateB8ue170006EPS2_m, symObjAddr: 0x3B90, symBinAddr: 0x100004FDC, symSize: 0x4C }
  - { offsetInCU: 0x1A34A, offset: 0x1A34A, size: 0x8, addend: 0x0, symName: __ZNSt3__117__compressed_pairIPN3ast11program_errENS_9allocatorIS2_EEE6secondB8ue170006Ev, symObjAddr: 0x3D04, symBinAddr: 0x100005150, symSize: 0x24 }
  - { offsetInCU: 0x1A370, offset: 0x1A370, size: 0x8, addend: 0x0, symName: __ZNSt3__122__compressed_pair_elemINS_9allocatorIN3ast11program_errEEELi1ELb1EE5__getB8ue170006Ev, symObjAddr: 0x3D28, symBinAddr: 0x100005174, symSize: 0x14 }
  - { offsetInCU: 0x1A396, offset: 0x1A396, size: 0x8, addend: 0x0, symName: __ZNKSt3__16vectorIN3ast11program_errENS_9allocatorIS2_EEE9__end_capB8ue170006Ev, symObjAddr: 0x3D3C, symBinAddr: 0x100005188, symSize: 0x28 }
  - { offsetInCU: 0x1A3BC, offset: 0x1A3BC, size: 0x8, addend: 0x0, symName: __ZNKSt3__117__compressed_pairIPN3ast11program_errENS_9allocatorIS2_EEE5firstB8ue170006Ev, symObjAddr: 0x3D64, symBinAddr: 0x1000051B0, symSize: 0x24 }
  - { offsetInCU: 0x1A3E2, offset: 0x1A3E2, size: 0x8, addend: 0x0, symName: __ZNKSt3__122__compressed_pair_elemIPN3ast11program_errELi0ELb0EE5__getB8ue170006Ev, symObjAddr: 0x3D88, symBinAddr: 0x1000051D4, symSize: 0x14 }
  - { offsetInCU: 0x1A408, offset: 0x1A408, size: 0x8, addend: 0x0, symName: __ZN11expressions21expressions_containerD2Ev, symObjAddr: 0x3D9C, symBinAddr: 0x1000051E8, symSize: 0x2C }
  - { offsetInCU: 0x1A434, offset: 0x1A434, size: 0x8, addend: 0x0, symName: __ZNSt3__16vectorIN11expressions12expr_literalENS_9allocatorIS2_EEED1B8ue170006Ev, symObjAddr: 0x3DC8, symBinAddr: 0x100005214, symSize: 0x2C }
  - { offsetInCU: 0x1A45E, offset: 0x1A45E, size: 0x8, addend: 0x0, symName: __ZNSt3__16vectorIN11expressions12expr_literalENS_9allocatorIS2_EEED2B8ue170006Ev, symObjAddr: 0x3DF4, symBinAddr: 0x100005240, symSize: 0x1F8 }
  - { offsetInCU: 0x1A489, offset: 0x1A489, size: 0x8, addend: 0x0, symName: __ZNSt3__16vectorIN11expressions12expr_literalENS_9allocatorIS2_EEE16__destroy_vectorC1B8ue170006ERS5_, symObjAddr: 0x3FEC, symBinAddr: 0x100005438, symSize: 0x34 }
  - { offsetInCU: 0x1A4C2, offset: 0x1A4C2, size: 0x8, addend: 0x0, symName: __ZNSt3__16vectorIN11expressions12expr_literalENS_9allocatorIS2_EEE16__destroy_vectorclB8ue170006Ev, symObjAddr: 0x4020, symBinAddr: 0x10000546C, symSize: 0x228 }
  - { offsetInCU: 0x1A4E8, offset: 0x1A4E8, size: 0x8, addend: 0x0, symName: __ZNSt3__16vectorIN11expressions12expr_literalENS_9allocatorIS2_EEE16__destroy_vectorC2B8ue170006ERS5_, symObjAddr: 0x4248, symBinAddr: 0x100005694, symSize: 0x70 }
  - { offsetInCU: 0x1A521, offset: 0x1A521, size: 0x8, addend: 0x0, symName: __ZNSt3__16vectorIN11expressions12expr_literalENS_9allocatorIS2_EEE7__clearB8ue170006Ev, symObjAddr: 0x42B8, symBinAddr: 0x100005704, symSize: 0x64 }
  - { offsetInCU: 0x1A547, offset: 0x1A547, size: 0x8, addend: 0x0, symName: __ZNKSt3__16vectorIN11expressions12expr_literalENS_9allocatorIS2_EEE17__annotate_deleteB8ue170006Ev, symObjAddr: 0x431C, symBinAddr: 0x100005768, symSize: 0xCC }
  - { offsetInCU: 0x1A56D, offset: 0x1A56D, size: 0x8, addend: 0x0, symName: __ZNSt3__116allocator_traitsINS_9allocatorIN11expressions12expr_literalEEEE10deallocateB8ue170006ERS4_PS3_m, symObjAddr: 0x43E8, symBinAddr: 0x100005834, symSize: 0x34 }
  - { offsetInCU: 0x1A5AF, offset: 0x1A5AF, size: 0x8, addend: 0x0, symName: __ZNSt3__16vectorIN11expressions12expr_literalENS_9allocatorIS2_EEE7__allocB8ue170006Ev, symObjAddr: 0x441C, symBinAddr: 0x100005868, symSize: 0x28 }
  - { offsetInCU: 0x1A5D5, offset: 0x1A5D5, size: 0x8, addend: 0x0, symName: __ZNKSt3__16vectorIN11expressions12expr_literalENS_9allocatorIS2_EEE8capacityB8ue170006Ev, symObjAddr: 0x4444, symBinAddr: 0x100005890, symSize: 0xBC }
  - { offsetInCU: 0x1A5FB, offset: 0x1A5FB, size: 0x8, addend: 0x0, symName: __ZNSt3__16vectorIN11expressions12expr_literalENS_9allocatorIS2_EEE22__base_destruct_at_endB8ue170006EPS2_, symObjAddr: 0x4500, symBinAddr: 0x10000594C, symSize: 0x114 }
  - { offsetInCU: 0x1A63F, offset: 0x1A63F, size: 0x8, addend: 0x0, symName: __ZNSt3__116allocator_traitsINS_9allocatorIN11expressions12expr_literalEEEE7destroyB8ue170006IS3_vvEEvRS4_PT_, symObjAddr: 0x4614, symBinAddr: 0x100005A60, symSize: 0x28 }
  - { offsetInCU: 0x1A67A, offset: 0x1A67A, size: 0x8, addend: 0x0, symName: __ZNKSt3__16vectorIN11expressions12expr_literalENS_9allocatorIS2_EEE31__annotate_contiguous_containerEPKvS7_S7_S7_, symObjAddr: 0x4684, symBinAddr: 0x100005AD0, symSize: 0x58 }
  - { offsetInCU: 0x1A6DC, offset: 0x1A6DC, size: 0x8, addend: 0x0, symName: __ZNKSt3__16vectorIN11expressions12expr_literalENS_9allocatorIS2_EEE4dataB8ue170006Ev, symObjAddr: 0x46DC, symBinAddr: 0x100005B28, symSize: 0x64 }
  - { offsetInCU: 0x1A702, offset: 0x1A702, size: 0x8, addend: 0x0, symName: __ZNKSt3__16vectorIN11expressions12expr_literalENS_9allocatorIS2_EEE4sizeB8ue170006Ev, symObjAddr: 0x4740, symBinAddr: 0x100005B8C, symSize: 0xB0 }
  - { offsetInCU: 0x1A728, offset: 0x1A728, size: 0x8, addend: 0x0, symName: __ZNSt3__19allocatorIN11expressions12expr_literalEE10deallocateB8ue170006EPS2_m, symObjAddr: 0x47F0, symBinAddr: 0x100005C3C, symSize: 0x4C }
  - { offsetInCU: 0x1A76A, offset: 0x1A76A, size: 0x8, addend: 0x0, symName: __ZNSt3__117__compressed_pairIPN11expressions12expr_literalENS_9allocatorIS2_EEE6secondB8ue170006Ev, symObjAddr: 0x483C, symBinAddr: 0x100005C88, symSize: 0x24 }
  - { offsetInCU: 0x1A790, offset: 0x1A790, size: 0x8, addend: 0x0, symName: __ZNSt3__122__compressed_pair_elemINS_9allocatorIN11expressions12expr_literalEEELi1ELb1EE5__getB8ue170006Ev, symObjAddr: 0x4860, symBinAddr: 0x100005CAC, symSize: 0x14 }
  - { offsetInCU: 0x1A7B6, offset: 0x1A7B6, size: 0x8, addend: 0x0, symName: __ZNKSt3__16vectorIN11expressions12expr_literalENS_9allocatorIS2_EEE9__end_capB8ue170006Ev, symObjAddr: 0x4874, symBinAddr: 0x100005CC0, symSize: 0x28 }
  - { offsetInCU: 0x1A7DC, offset: 0x1A7DC, size: 0x8, addend: 0x0, symName: __ZNKSt3__117__compressed_pairIPN11expressions12expr_literalENS_9allocatorIS2_EEE5firstB8ue170006Ev, symObjAddr: 0x489C, symBinAddr: 0x100005CE8, symSize: 0x24 }
  - { offsetInCU: 0x1A802, offset: 0x1A802, size: 0x8, addend: 0x0, symName: __ZNKSt3__122__compressed_pair_elemIPN11expressions12expr_literalELi0ELb0EE5__getB8ue170006Ev, symObjAddr: 0x48C0, symBinAddr: 0x100005D0C, symSize: 0x14 }
  - { offsetInCU: 0x1A828, offset: 0x1A828, size: 0x8, addend: 0x0, symName: __ZN10statements14stmt_containerD2Ev, symObjAddr: 0x48D4, symBinAddr: 0x100005D20, symSize: 0x2C }
  - { offsetInCU: 0x1A854, offset: 0x1A854, size: 0x8, addend: 0x0, symName: __ZNSt3__16vectorIN10statements4stmtENS_9allocatorIS2_EEED1B8ue170006Ev, symObjAddr: 0x4900, symBinAddr: 0x100005D4C, symSize: 0x2C }
  - { offsetInCU: 0x1A87E, offset: 0x1A87E, size: 0x8, addend: 0x0, symName: __ZNSt3__16vectorIN10statements4stmtENS_9allocatorIS2_EEED2B8ue170006Ev, symObjAddr: 0x492C, symBinAddr: 0x100005D78, symSize: 0x1F8 }
  - { offsetInCU: 0x1A8A9, offset: 0x1A8A9, size: 0x8, addend: 0x0, symName: __ZNSt3__16vectorIN10statements4stmtENS_9allocatorIS2_EEE16__destroy_vectorC1B8ue170006ERS5_, symObjAddr: 0x4B24, symBinAddr: 0x100005F70, symSize: 0x34 }
  - { offsetInCU: 0x1A8E2, offset: 0x1A8E2, size: 0x8, addend: 0x0, symName: __ZNSt3__16vectorIN10statements4stmtENS_9allocatorIS2_EEE16__destroy_vectorclB8ue170006Ev, symObjAddr: 0x4B58, symBinAddr: 0x100005FA4, symSize: 0x228 }
  - { offsetInCU: 0x1A908, offset: 0x1A908, size: 0x8, addend: 0x0, symName: __ZNSt3__16vectorIN10statements4stmtENS_9allocatorIS2_EEE16__destroy_vectorC2B8ue170006ERS5_, symObjAddr: 0x4D80, symBinAddr: 0x1000061CC, symSize: 0x70 }
  - { offsetInCU: 0x1A941, offset: 0x1A941, size: 0x8, addend: 0x0, symName: __ZNSt3__16vectorIN10statements4stmtENS_9allocatorIS2_EEE7__clearB8ue170006Ev, symObjAddr: 0x4DF0, symBinAddr: 0x10000623C, symSize: 0x64 }
  - { offsetInCU: 0x1A967, offset: 0x1A967, size: 0x8, addend: 0x0, symName: __ZNKSt3__16vectorIN10statements4stmtENS_9allocatorIS2_EEE17__annotate_deleteB8ue170006Ev, symObjAddr: 0x4E54, symBinAddr: 0x1000062A0, symSize: 0xE8 }
  - { offsetInCU: 0x1A98D, offset: 0x1A98D, size: 0x8, addend: 0x0, symName: __ZNSt3__116allocator_traitsINS_9allocatorIN10statements4stmtEEEE10deallocateB8ue170006ERS4_PS3_m, symObjAddr: 0x4F3C, symBinAddr: 0x100006388, symSize: 0x34 }
  - { offsetInCU: 0x1A9CF, offset: 0x1A9CF, size: 0x8, addend: 0x0, symName: __ZNSt3__16vectorIN10statements4stmtENS_9allocatorIS2_EEE7__allocB8ue170006Ev, symObjAddr: 0x4F70, symBinAddr: 0x1000063BC, symSize: 0x28 }
  - { offsetInCU: 0x1A9F5, offset: 0x1A9F5, size: 0x8, addend: 0x0, symName: __ZNKSt3__16vectorIN10statements4stmtENS_9allocatorIS2_EEE8capacityB8ue170006Ev, symObjAddr: 0x4F98, symBinAddr: 0x1000063E4, symSize: 0xBC }
  - { offsetInCU: 0x1AA1B, offset: 0x1AA1B, size: 0x8, addend: 0x0, symName: __ZNSt3__16vectorIN10statements4stmtENS_9allocatorIS2_EEE22__base_destruct_at_endB8ue170006EPS2_, symObjAddr: 0x5054, symBinAddr: 0x1000064A0, symSize: 0x114 }
  - { offsetInCU: 0x1AA5F, offset: 0x1AA5F, size: 0x8, addend: 0x0, symName: __ZNSt3__116allocator_traitsINS_9allocatorIN10statements4stmtEEEE7destroyB8ue170006IS3_vvEEvRS4_PT_, symObjAddr: 0x5168, symBinAddr: 0x1000065B4, symSize: 0x28 }
  - { offsetInCU: 0x1AA9A, offset: 0x1AA9A, size: 0x8, addend: 0x0, symName: __ZNKSt3__16vectorIN10statements4stmtENS_9allocatorIS2_EEE31__annotate_contiguous_containerEPKvS7_S7_S7_, symObjAddr: 0x51D8, symBinAddr: 0x100006624, symSize: 0x58 }
  - { offsetInCU: 0x1AAFC, offset: 0x1AAFC, size: 0x8, addend: 0x0, symName: __ZNKSt3__16vectorIN10statements4stmtENS_9allocatorIS2_EEE4dataB8ue170006Ev, symObjAddr: 0x5230, symBinAddr: 0x10000667C, symSize: 0x64 }
  - { offsetInCU: 0x1AB22, offset: 0x1AB22, size: 0x8, addend: 0x0, symName: __ZNKSt3__16vectorIN10statements4stmtENS_9allocatorIS2_EEE4sizeB8ue170006Ev, symObjAddr: 0x5294, symBinAddr: 0x1000066E0, symSize: 0xB0 }
  - { offsetInCU: 0x1AB48, offset: 0x1AB48, size: 0x8, addend: 0x0, symName: __ZNSt3__19allocatorIN10statements4stmtEE10deallocateB8ue170006EPS2_m, symObjAddr: 0x5344, symBinAddr: 0x100006790, symSize: 0x50 }
  - { offsetInCU: 0x1AB8A, offset: 0x1AB8A, size: 0x8, addend: 0x0, symName: __ZNSt3__117__compressed_pairIPN10statements4stmtENS_9allocatorIS2_EEE6secondB8ue170006Ev, symObjAddr: 0x5394, symBinAddr: 0x1000067E0, symSize: 0x24 }
  - { offsetInCU: 0x1ABB0, offset: 0x1ABB0, size: 0x8, addend: 0x0, symName: __ZNSt3__122__compressed_pair_elemINS_9allocatorIN10statements4stmtEEELi1ELb1EE5__getB8ue170006Ev, symObjAddr: 0x53B8, symBinAddr: 0x100006804, symSize: 0x14 }
  - { offsetInCU: 0x1ABD6, offset: 0x1ABD6, size: 0x8, addend: 0x0, symName: __ZNKSt3__16vectorIN10statements4stmtENS_9allocatorIS2_EEE9__end_capB8ue170006Ev, symObjAddr: 0x53CC, symBinAddr: 0x100006818, symSize: 0x28 }
  - { offsetInCU: 0x1ABFC, offset: 0x1ABFC, size: 0x8, addend: 0x0, symName: __ZNKSt3__117__compressed_pairIPN10statements4stmtENS_9allocatorIS2_EEE5firstB8ue170006Ev, symObjAddr: 0x53F4, symBinAddr: 0x100006840, symSize: 0x24 }
  - { offsetInCU: 0x1AC22, offset: 0x1AC22, size: 0x8, addend: 0x0, symName: __ZNKSt3__122__compressed_pair_elemIPN10statements4stmtELi0ELb0EE5__getB8ue170006Ev, symObjAddr: 0x5418, symBinAddr: 0x100006864, symSize: 0x14 }
  - { offsetInCU: 0x1AC48, offset: 0x1AC48, size: 0x8, addend: 0x0, symName: __ZN8scanning7scannerD2Ev, symObjAddr: 0x542C, symBinAddr: 0x100006878, symSize: 0x30 }
  - { offsetInCU: 0x1AC74, offset: 0x1AC74, size: 0x8, addend: 0x0, symName: __ZNSt3__16vectorIN6tokens5tokenENS_9allocatorIS2_EEED1B8ue170006Ev, symObjAddr: 0x545C, symBinAddr: 0x1000068A8, symSize: 0x2C }
  - { offsetInCU: 0x1AC9E, offset: 0x1AC9E, size: 0x8, addend: 0x0, symName: __ZNSt3__16vectorIN6tokens5tokenENS_9allocatorIS2_EEED2B8ue170006Ev, symObjAddr: 0x5488, symBinAddr: 0x1000068D4, symSize: 0x1F8 }
  - { offsetInCU: 0x1ACC9, offset: 0x1ACC9, size: 0x8, addend: 0x0, symName: __ZNSt3__16vectorIN6tokens5tokenENS_9allocatorIS2_EEE16__destroy_vectorC1B8ue170006ERS5_, symObjAddr: 0x5680, symBinAddr: 0x100006ACC, symSize: 0x34 }
  - { offsetInCU: 0x1AD02, offset: 0x1AD02, size: 0x8, addend: 0x0, symName: __ZNSt3__16vectorIN6tokens5tokenENS_9allocatorIS2_EEE16__destroy_vectorclB8ue170006Ev, symObjAddr: 0x56B4, symBinAddr: 0x100006B00, symSize: 0x228 }
  - { offsetInCU: 0x1AD28, offset: 0x1AD28, size: 0x8, addend: 0x0, symName: __ZNSt3__16vectorIN6tokens5tokenENS_9allocatorIS2_EEE16__destroy_vectorC2B8ue170006ERS5_, symObjAddr: 0x58DC, symBinAddr: 0x100006D28, symSize: 0x70 }
  - { offsetInCU: 0x1AD61, offset: 0x1AD61, size: 0x8, addend: 0x0, symName: __ZNSt3__16vectorIN6tokens5tokenENS_9allocatorIS2_EEE7__clearB8ue170006Ev, symObjAddr: 0x594C, symBinAddr: 0x100006D98, symSize: 0x64 }
  - { offsetInCU: 0x1AD87, offset: 0x1AD87, size: 0x8, addend: 0x0, symName: __ZNKSt3__16vectorIN6tokens5tokenENS_9allocatorIS2_EEE17__annotate_deleteB8ue170006Ev, symObjAddr: 0x59B0, symBinAddr: 0x100006DFC, symSize: 0xCC }
  - { offsetInCU: 0x1ADAD, offset: 0x1ADAD, size: 0x8, addend: 0x0, symName: __ZNSt3__116allocator_traitsINS_9allocatorIN6tokens5tokenEEEE10deallocateB8ue170006ERS4_PS3_m, symObjAddr: 0x5A7C, symBinAddr: 0x100006EC8, symSize: 0x34 }
  - { offsetInCU: 0x1ADEF, offset: 0x1ADEF, size: 0x8, addend: 0x0, symName: __ZNSt3__16vectorIN6tokens5tokenENS_9allocatorIS2_EEE7__allocB8ue170006Ev, symObjAddr: 0x5AB0, symBinAddr: 0x100006EFC, symSize: 0x28 }
  - { offsetInCU: 0x1AE15, offset: 0x1AE15, size: 0x8, addend: 0x0, symName: __ZNKSt3__16vectorIN6tokens5tokenENS_9allocatorIS2_EEE8capacityB8ue170006Ev, symObjAddr: 0x5AD8, symBinAddr: 0x100006F24, symSize: 0xBC }
  - { offsetInCU: 0x1AE3B, offset: 0x1AE3B, size: 0x8, addend: 0x0, symName: __ZNSt3__16vectorIN6tokens5tokenENS_9allocatorIS2_EEE22__base_destruct_at_endB8ue170006EPS2_, symObjAddr: 0x5B94, symBinAddr: 0x100006FE0, symSize: 0x114 }
  - { offsetInCU: 0x1AE7F, offset: 0x1AE7F, size: 0x8, addend: 0x0, symName: __ZNSt3__116allocator_traitsINS_9allocatorIN6tokens5tokenEEEE7destroyB8ue170006IS3_vvEEvRS4_PT_, symObjAddr: 0x5CA8, symBinAddr: 0x1000070F4, symSize: 0x28 }
  - { offsetInCU: 0x1AEBA, offset: 0x1AEBA, size: 0x8, addend: 0x0, symName: __ZNKSt3__16vectorIN6tokens5tokenENS_9allocatorIS2_EEE31__annotate_contiguous_containerEPKvS7_S7_S7_, symObjAddr: 0x5D18, symBinAddr: 0x100007164, symSize: 0x58 }
  - { offsetInCU: 0x1AF1C, offset: 0x1AF1C, size: 0x8, addend: 0x0, symName: __ZNKSt3__16vectorIN6tokens5tokenENS_9allocatorIS2_EEE4dataB8ue170006Ev, symObjAddr: 0x5D70, symBinAddr: 0x1000071BC, symSize: 0x64 }
  - { offsetInCU: 0x1AF42, offset: 0x1AF42, size: 0x8, addend: 0x0, symName: __ZNKSt3__16vectorIN6tokens5tokenENS_9allocatorIS2_EEE4sizeB8ue170006Ev, symObjAddr: 0x5DD4, symBinAddr: 0x100007220, symSize: 0xB0 }
  - { offsetInCU: 0x1AF68, offset: 0x1AF68, size: 0x8, addend: 0x0, symName: __ZNSt3__19allocatorIN6tokens5tokenEE10deallocateB8ue170006EPS2_m, symObjAddr: 0x5E84, symBinAddr: 0x1000072D0, symSize: 0x4C }
  - { offsetInCU: 0x1AFAA, offset: 0x1AFAA, size: 0x8, addend: 0x0, symName: __ZNSt3__117__compressed_pairIPN6tokens5tokenENS_9allocatorIS2_EEE6secondB8ue170006Ev, symObjAddr: 0x5ED0, symBinAddr: 0x10000731C, symSize: 0x24 }
  - { offsetInCU: 0x1AFD0, offset: 0x1AFD0, size: 0x8, addend: 0x0, symName: __ZNSt3__122__compressed_pair_elemINS_9allocatorIN6tokens5tokenEEELi1ELb1EE5__getB8ue170006Ev, symObjAddr: 0x5EF4, symBinAddr: 0x100007340, symSize: 0x14 }
  - { offsetInCU: 0x1AFF6, offset: 0x1AFF6, size: 0x8, addend: 0x0, symName: __ZNKSt3__16vectorIN6tokens5tokenENS_9allocatorIS2_EEE9__end_capB8ue170006Ev, symObjAddr: 0x5F08, symBinAddr: 0x100007354, symSize: 0x28 }
  - { offsetInCU: 0x1B01C, offset: 0x1B01C, size: 0x8, addend: 0x0, symName: __ZNKSt3__117__compressed_pairIPN6tokens5tokenENS_9allocatorIS2_EEE5firstB8ue170006Ev, symObjAddr: 0x5F30, symBinAddr: 0x10000737C, symSize: 0x24 }
  - { offsetInCU: 0x1B042, offset: 0x1B042, size: 0x8, addend: 0x0, symName: __ZNKSt3__122__compressed_pair_elemIPN6tokens5tokenELi0ELb0EE5__getB8ue170006Ev, symObjAddr: 0x5F54, symBinAddr: 0x1000073A0, symSize: 0x14 }
  - { offsetInCU: 0x1B068, offset: 0x1B068, size: 0x8, addend: 0x0, symName: __ZNSt3__119istreambuf_iteratorIcNS_11char_traitsIcEEEC2B8ue170006Ev, symObjAddr: 0x5F68, symBinAddr: 0x1000073B4, symSize: 0x60 }
  - { offsetInCU: 0x1B092, offset: 0x1B092, size: 0x8, addend: 0x0, symName: __ZNSt3__112basic_stringIcNS_11char_traitsIcEENS_9allocatorIcEEEC2B8ue170006INS_19istreambuf_iteratorIcS2_EELi0EEET_S9_, symObjAddr: 0x5FC8, symBinAddr: 0x100007414, symSize: 0x3C8 }
  - { offsetInCU: 0x1B0F2, offset: 0x1B0F2, size: 0x8, addend: 0x0, symName: __ZNSt3__112basic_stringIcNS_11char_traitsIcEENS_9allocatorIcEEE6__initINS_19istreambuf_iteratorIcS2_EELi0EEEvT_S9_, symObjAddr: 0x6390, symBinAddr: 0x1000077DC, symSize: 0x360 }
  - { offsetInCU: 0x1B150, offset: 0x1B150, size: 0x8, addend: 0x0, symName: __ZNSt3__112basic_stringIcNS_11char_traitsIcEENS_9allocatorIcEEE20__init_with_sentinelB8ue170006INS_19istreambuf_iteratorIcS2_EES8_EEvT_T0_, symObjAddr: 0x66F0, symBinAddr: 0x100007B3C, symSize: 0x3F8 }
  - { offsetInCU: 0x1B1B1, offset: 0x1B1B1, size: 0x8, addend: 0x0, symName: __ZNSt3__112basic_stringIcNS_11char_traitsIcEENS_9allocatorIcEEE14__default_initB8ue170006Ev, symObjAddr: 0x6AE8, symBinAddr: 0x100007F34, symSize: 0x22C }
  - { offsetInCU: 0x1B1D8, offset: 0x1B1D8, size: 0x8, addend: 0x0, symName: __ZNKSt3__119istreambuf_iteratorIcNS_11char_traitsIcEEEdeB8ue170006Ev, symObjAddr: 0x6D44, symBinAddr: 0x100008190, symSize: 0x68 }
  - { offsetInCU: 0x1B1FE, offset: 0x1B1FE, size: 0x8, addend: 0x0, symName: __ZNSt3__119istreambuf_iteratorIcNS_11char_traitsIcEEEppB8ue170006Ev, symObjAddr: 0x6DAC, symBinAddr: 0x1000081F8, symSize: 0x68 }
  - { offsetInCU: 0x1B224, offset: 0x1B224, size: 0x8, addend: 0x0, symName: __ZNKSt3__112basic_stringIcNS_11char_traitsIcEENS_9allocatorIcEEE9__is_longB8ue170006Ev, symObjAddr: 0x6E14, symBinAddr: 0x100008260, symSize: 0xA4 }
  - { offsetInCU: 0x1B24A, offset: 0x1B24A, size: 0x8, addend: 0x0, symName: __ZNSt3__116allocator_traitsINS_9allocatorIcEEE10deallocateB8ue170006ERS2_Pcm, symObjAddr: 0x6EB8, symBinAddr: 0x100008304, symSize: 0x34 }
  - { offsetInCU: 0x1B28C, offset: 0x1B28C, size: 0x8, addend: 0x0, symName: __ZNSt3__112basic_stringIcNS_11char_traitsIcEENS_9allocatorIcEEE7__allocB8ue170006Ev, symObjAddr: 0x6EEC, symBinAddr: 0x100008338, symSize: 0x24 }
  - { offsetInCU: 0x1B2B2, offset: 0x1B2B2, size: 0x8, addend: 0x0, symName: __ZNSt3__112basic_stringIcNS_11char_traitsIcEENS_9allocatorIcEEE18__get_long_pointerB8ue170006Ev, symObjAddr: 0x6F10, symBinAddr: 0x10000835C, symSize: 0x6C }
  - { offsetInCU: 0x1B2D8, offset: 0x1B2D8, size: 0x8, addend: 0x0, symName: __ZNKSt3__112basic_stringIcNS_11char_traitsIcEENS_9allocatorIcEEE14__get_long_capB8ue170006Ev, symObjAddr: 0x6F7C, symBinAddr: 0x1000083C8, symSize: 0x78 }
  - { offsetInCU: 0x1B2FE, offset: 0x1B2FE, size: 0x8, addend: 0x0, symName: __ZNSt3__117__compressed_pairINS_12basic_stringIcNS_11char_traitsIcEENS_9allocatorIcEEE5__repES5_E5firstB8ue170006Ev, symObjAddr: 0x6FF4, symBinAddr: 0x100008440, symSize: 0x24 }
  - { offsetInCU: 0x1B324, offset: 0x1B324, size: 0x8, addend: 0x0, symName: __ZNSt3__122__compressed_pair_elemINS_12basic_stringIcNS_11char_traitsIcEENS_9allocatorIcEEE5__repELi0ELb0EE5__getB8ue170006Ev, symObjAddr: 0x7018, symBinAddr: 0x100008464, symSize: 0x14 }
  - { offsetInCU: 0x1B34A, offset: 0x1B34A, size: 0x8, addend: 0x0, symName: __ZNKSt3__119istreambuf_iteratorIcNS_11char_traitsIcEEE5equalB8ue170006ERKS3_, symObjAddr: 0x702C, symBinAddr: 0x100008478, symSize: 0x4C }
  - { offsetInCU: 0x1B37E, offset: 0x1B37E, size: 0x8, addend: 0x0, symName: __ZNKSt3__119istreambuf_iteratorIcNS_11char_traitsIcEEE14__test_for_eofB8ue170006Ev, symObjAddr: 0x7078, symBinAddr: 0x1000084C4, symSize: 0x14C }
  - { offsetInCU: 0x1B3A4, offset: 0x1B3A4, size: 0x8, addend: 0x0, symName: __ZNSt3__111char_traitsIcE11eq_int_typeB8ue170006Eii, symObjAddr: 0x71C4, symBinAddr: 0x100008610, symSize: 0x28 }
  - { offsetInCU: 0x1B3D7, offset: 0x1B3D7, size: 0x8, addend: 0x0, symName: __ZNSt3__115basic_streambufIcNS_11char_traitsIcEEE5sgetcB8ue170006Ev, symObjAddr: 0x71EC, symBinAddr: 0x100008638, symSize: 0x1E4 }
  - { offsetInCU: 0x1B3FD, offset: 0x1B3FD, size: 0x8, addend: 0x0, symName: __ZNSt3__111char_traitsIcE3eofB8ue170006Ev, symObjAddr: 0x73D0, symBinAddr: 0x10000881C, symSize: 0x8 }
  - { offsetInCU: 0x1B411, offset: 0x1B411, size: 0x8, addend: 0x0, symName: __ZNSt3__111char_traitsIcE11to_int_typeB8ue170006Ec, symObjAddr: 0x73D8, symBinAddr: 0x100008824, symSize: 0x14 }
  - { offsetInCU: 0x1B435, offset: 0x1B435, size: 0x8, addend: 0x0, symName: __ZNSt3__115basic_streambufIcNS_11char_traitsIcEEE6sbumpcB8ue170006Ev, symObjAddr: 0x73EC, symBinAddr: 0x100008838, symSize: 0x1EC }
  - { offsetInCU: 0x1B45B, offset: 0x1B45B, size: 0x8, addend: 0x0, symName: __ZNKSt3__117__compressed_pairINS_12basic_stringIcNS_11char_traitsIcEENS_9allocatorIcEEE5__repES5_E5firstB8ue170006Ev, symObjAddr: 0x75D8, symBinAddr: 0x100008A24, symSize: 0x24 }
  - { offsetInCU: 0x1B481, offset: 0x1B481, size: 0x8, addend: 0x0, symName: __ZNKSt3__122__compressed_pair_elemINS_12basic_stringIcNS_11char_traitsIcEENS_9allocatorIcEEE5__repELi0ELb0EE5__getB8ue170006Ev, symObjAddr: 0x75FC, symBinAddr: 0x100008A48, symSize: 0x14 }
  - { offsetInCU: 0x1B4A7, offset: 0x1B4A7, size: 0x8, addend: 0x0, symName: __ZNSt3__19allocatorIcE10deallocateB8ue170006EPcm, symObjAddr: 0x7610, symBinAddr: 0x100008A5C, symSize: 0x4C }
  - { offsetInCU: 0x1B4E9, offset: 0x1B4E9, size: 0x8, addend: 0x0, symName: __ZNSt3__117__compressed_pairINS_12basic_stringIcNS_11char_traitsIcEENS_9allocatorIcEEE5__repES5_E6secondB8ue170006Ev, symObjAddr: 0x765C, symBinAddr: 0x100008AA8, symSize: 0x24 }
  - { offsetInCU: 0x1B50F, offset: 0x1B50F, size: 0x8, addend: 0x0, symName: __ZNSt3__122__compressed_pair_elemINS_9allocatorIcEELi1ELb1EE5__getB8ue170006Ev, symObjAddr: 0x7680, symBinAddr: 0x100008ACC, symSize: 0x14 }
  - { offsetInCU: 0x1B535, offset: 0x1B535, size: 0x8, addend: 0x0, symName: __ZNSt3__114basic_ifstreamIcNS_11char_traitsIcEEED2Ev, symObjAddr: 0x7694, symBinAddr: 0x100008AE0, symSize: 0x198 }
  - { offsetInCU: 0x1B56F, offset: 0x1B56F, size: 0x8, addend: 0x0, symName: __ZTv0_n24_NSt3__114basic_ifstreamIcNS_11char_traitsIcEEED1Ev, symObjAddr: 0x782C, symBinAddr: 0x100008C78, symSize: 0xB0 }
  - { offsetInCU: 0x1B586, offset: 0x1B586, size: 0x8, addend: 0x0, symName: __ZNSt3__112basic_stringIcNS_11char_traitsIcEENS_9allocatorIcEEEC2B8ue170006Ev, symObjAddr: 0x78DC, symBinAddr: 0x100008D28, symSize: 0x208 }
  - { offsetInCU: 0x1B5CF, offset: 0x1B5CF, size: 0x8, addend: 0x0, symName: __ZNKSt3__113basic_ostreamIcNS_11char_traitsIcEEE6sentrycvbB8ue170006Ev, symObjAddr: 0x8228, symBinAddr: 0x100009674, symSize: 0x88 }
  - { offsetInCU: 0x1B5F5, offset: 0x1B5F5, size: 0x8, addend: 0x0, symName: __ZNSt3__119ostreambuf_iteratorIcNS_11char_traitsIcEEEC1B8ue170006ERNS_13basic_ostreamIcS2_EE, symObjAddr: 0x8A10, symBinAddr: 0x100009E5C, symSize: 0x34 }
  - { offsetInCU: 0x1B62D, offset: 0x1B62D, size: 0x8, addend: 0x0, symName: __ZNKSt3__18ios_base5flagsB8ue170006Ev, symObjAddr: 0x8A44, symBinAddr: 0x100009E90, symSize: 0x8C }
  - { offsetInCU: 0x1B655, offset: 0x1B655, size: 0x8, addend: 0x0, symName: __ZNKSt3__19basic_iosIcNS_11char_traitsIcEEE4fillB8ue170006Ev, symObjAddr: 0x8AD0, symBinAddr: 0x100009F1C, symSize: 0x198 }
  - { offsetInCU: 0x1B67D, offset: 0x1B67D, size: 0x8, addend: 0x0, symName: __ZNKSt3__119ostreambuf_iteratorIcNS_11char_traitsIcEEE6failedB8ue170006Ev, symObjAddr: 0x8C68, symBinAddr: 0x10000A0B4, symSize: 0x6C }
  - { offsetInCU: 0x1B6A3, offset: 0x1B6A3, size: 0x8, addend: 0x0, symName: __ZNSt3__19basic_iosIcNS_11char_traitsIcEEE8setstateB8ue170006Ej, symObjAddr: 0x8CD4, symBinAddr: 0x10000A120, symSize: 0x2C }
  - { offsetInCU: 0x1B6D8, offset: 0x1B6D8, size: 0x8, addend: 0x0, symName: __ZNKSt3__18ios_base5widthB8ue170006Ev, symObjAddr: 0x8D00, symBinAddr: 0x10000A14C, symSize: 0x64 }
  - { offsetInCU: 0x1B700, offset: 0x1B700, size: 0x8, addend: 0x0, symName: __ZNSt3__115basic_streambufIcNS_11char_traitsIcEEE5sputnB8ue170006EPKcl, symObjAddr: 0x8D64, symBinAddr: 0x10000A1B0, symSize: 0xC8 }
  - { offsetInCU: 0x1B742, offset: 0x1B742, size: 0x8, addend: 0x0, symName: __ZNSt3__112basic_stringIcNS_11char_traitsIcEENS_9allocatorIcEEEC1B8ue170006Emc, symObjAddr: 0x8E2C, symBinAddr: 0x10000A278, symSize: 0x3C }
  - { offsetInCU: 0x1B78A, offset: 0x1B78A, size: 0x8, addend: 0x0, symName: __ZNSt3__112basic_stringIcNS_11char_traitsIcEENS_9allocatorIcEEE4dataB8ue170006Ev, symObjAddr: 0x8E68, symBinAddr: 0x10000A2B4, symSize: 0x28 }
  - { offsetInCU: 0x1B7B0, offset: 0x1B7B0, size: 0x8, addend: 0x0, symName: __ZNSt3__18ios_base5widthB8ue170006El, symObjAddr: 0x8E90, symBinAddr: 0x10000A2DC, symSize: 0xB8 }
  - { offsetInCU: 0x1B7F6, offset: 0x1B7F6, size: 0x8, addend: 0x0, symName: __ZNSt3__112basic_stringIcNS_11char_traitsIcEENS_9allocatorIcEEEC2B8ue170006Emc, symObjAddr: 0x8F48, symBinAddr: 0x10000A394, symSize: 0x204 }
  - { offsetInCU: 0x1B841, offset: 0x1B841, size: 0x8, addend: 0x0, symName: __ZNSt3__112basic_stringIcNS_11char_traitsIcEENS_9allocatorIcEEE13__get_pointerB8ue170006Ev, symObjAddr: 0x9160, symBinAddr: 0x10000A5AC, symSize: 0x54 }
  - { offsetInCU: 0x1B867, offset: 0x1B867, size: 0x8, addend: 0x0, symName: __ZNSt3__112basic_stringIcNS_11char_traitsIcEENS_9allocatorIcEEE19__get_short_pointerB8ue170006Ev, symObjAddr: 0x91B4, symBinAddr: 0x10000A600, symSize: 0x28 }
  - { offsetInCU: 0x1B88D, offset: 0x1B88D, size: 0x8, addend: 0x0, symName: __ZNSt3__114pointer_traitsIPcE10pointer_toB8ue170006ERc, symObjAddr: 0x91DC, symBinAddr: 0x10000A628, symSize: 0x14 }
  - { offsetInCU: 0x1B8B0, offset: 0x1B8B0, size: 0x8, addend: 0x0, symName: __ZNSt3__119ostreambuf_iteratorIcNS_11char_traitsIcEEEC2B8ue170006ERNS_13basic_ostreamIcS2_EE, symObjAddr: 0x91F0, symBinAddr: 0x10000A63C, symSize: 0x10C }
  - { offsetInCU: 0x1B8E8, offset: 0x1B8E8, size: 0x8, addend: 0x0, symName: __ZNKSt3__19basic_iosIcNS_11char_traitsIcEEE5rdbufB8ue170006Ev, symObjAddr: 0x92FC, symBinAddr: 0x10000A748, symSize: 0x24 }
  - { offsetInCU: 0x1B910, offset: 0x1B910, size: 0x8, addend: 0x0, symName: __ZNKSt3__18ios_base5rdbufB8ue170006Ev, symObjAddr: 0x9320, symBinAddr: 0x10000A76C, symSize: 0x64 }
  - { offsetInCU: 0x1B936, offset: 0x1B936, size: 0x8, addend: 0x0, symName: __ZNKSt3__19basic_iosIcNS_11char_traitsIcEEE5widenB8ue170006Ec, symObjAddr: 0x9384, symBinAddr: 0x10000A7D0, symSize: 0x2A4 }
  - { offsetInCU: 0x1B9A6, offset: 0x1B9A6, size: 0x8, addend: 0x0, symName: __ZNKSt3__15ctypeIcE5widenB8ue170006Ec, symObjAddr: 0x9654, symBinAddr: 0x10000AAA0, symSize: 0xBC }
  - { offsetInCU: 0x1B9DB, offset: 0x1B9DB, size: 0x8, addend: 0x0, symName: __ZNSt3__18ios_base8setstateB8ue170006Ej, symObjAddr: 0x9710, symBinAddr: 0x10000AB5C, symSize: 0x9C }
  - { offsetInCU: 0x1BA12, offset: 0x1BA12, size: 0x8, addend: 0x0, symName: __ZNKSt3__112basic_stringIcNS_11char_traitsIcEENS_9allocatorIcEEE4dataB8ue170006Ev, symObjAddr: 0x97AC, symBinAddr: 0x10000ABF8, symSize: 0x28 }
  - { offsetInCU: 0x1BA38, offset: 0x1BA38, size: 0x8, addend: 0x0, symName: __ZNKSt3__112basic_stringIcNS_11char_traitsIcEENS_9allocatorIcEEE4sizeB8ue170006Ev, symObjAddr: 0x97D4, symBinAddr: 0x10000AC20, symSize: 0x54 }
  - { offsetInCU: 0x1BA5E, offset: 0x1BA5E, size: 0x8, addend: 0x0, symName: __ZNKSt3__112basic_stringIcNS_11char_traitsIcEENS_9allocatorIcEEE13__get_pointerB8ue170006Ev, symObjAddr: 0x983C, symBinAddr: 0x10000AC88, symSize: 0x54 }
  - { offsetInCU: 0x1BA84, offset: 0x1BA84, size: 0x8, addend: 0x0, symName: __ZNKSt3__112basic_stringIcNS_11char_traitsIcEENS_9allocatorIcEEE18__get_long_pointerB8ue170006Ev, symObjAddr: 0x9890, symBinAddr: 0x10000ACDC, symSize: 0x6C }
  - { offsetInCU: 0x1BAAA, offset: 0x1BAAA, size: 0x8, addend: 0x0, symName: __ZNKSt3__112basic_stringIcNS_11char_traitsIcEENS_9allocatorIcEEE19__get_short_pointerB8ue170006Ev, symObjAddr: 0x98FC, symBinAddr: 0x10000AD48, symSize: 0x28 }
  - { offsetInCU: 0x1BAD0, offset: 0x1BAD0, size: 0x8, addend: 0x0, symName: __ZNSt3__114pointer_traitsIPKcE10pointer_toB8ue170006ERS1_, symObjAddr: 0x9924, symBinAddr: 0x10000AD70, symSize: 0x14 }
  - { offsetInCU: 0x1BAF3, offset: 0x1BAF3, size: 0x8, addend: 0x0, symName: __ZNKSt3__112basic_stringIcNS_11char_traitsIcEENS_9allocatorIcEEE15__get_long_sizeB8ue170006Ev, symObjAddr: 0x9938, symBinAddr: 0x10000AD84, symSize: 0x70 }
  - { offsetInCU: 0x1BB19, offset: 0x1BB19, size: 0x8, addend: 0x0, symName: __ZNKSt3__112basic_stringIcNS_11char_traitsIcEENS_9allocatorIcEEE16__get_short_sizeB8ue170006Ev, symObjAddr: 0x99A8, symBinAddr: 0x10000ADF4, symSize: 0xA0 }
  - { offsetInCU: 0x1BB3F, offset: 0x1BB3F, size: 0x8, addend: 0x0, symName: __ZNSt3__19basic_iosIcNS_11char_traitsIcEEEC2B8ue170006Ev, symObjAddr: 0x9A48, symBinAddr: 0x10000AE94, symSize: 0x84 }
  - { offsetInCU: 0x1BB69, offset: 0x1BB69, size: 0x8, addend: 0x0, symName: __ZNSt3__113basic_ostreamIcNS_11char_traitsIcEEEC2B8ue170006EPNS_15basic_streambufIcS2_EE, symObjAddr: 0x9ACC, symBinAddr: 0x10000AF18, symSize: 0x1D4 }
  - { offsetInCU: 0x1BBAE, offset: 0x1BBAE, size: 0x8, addend: 0x0, symName: __ZNSt3__18ios_baseC2B8ue170006Ev, symObjAddr: 0x9CA0, symBinAddr: 0x10000B0EC, symSize: 0x74 }
  - { offsetInCU: 0x1BBD8, offset: 0x1BBD8, size: 0x8, addend: 0x0, symName: __ZNSt3__19basic_iosIcNS_11char_traitsIcEEE4initB8ue170006EPNS_15basic_streambufIcS2_EE, symObjAddr: 0x9D14, symBinAddr: 0x10000B160, symSize: 0xEC }
  - { offsetInCU: 0x1BC0F, offset: 0x1BC0F, size: 0x8, addend: 0x0, symName: __ZNSt3__113basic_istreamIcNS_11char_traitsIcEEEC2B8ue170006EPNS_15basic_streambufIcS2_EE, symObjAddr: 0x9E00, symBinAddr: 0x10000B24C, symSize: 0x20C }
  - { offsetInCU: 0x1BC54, offset: 0x1BC54, size: 0x8, addend: 0x0, symName: __ZNSt3__113basic_filebufIcNS_11char_traitsIcEEE4openERKNS_12basic_stringIcS2_NS_9allocatorIcEEEEj, symObjAddr: 0xA00C, symBinAddr: 0x10000B458, symSize: 0x44 }
  - { offsetInCU: 0x1BC98, offset: 0x1BC98, size: 0x8, addend: 0x0, symName: __ZNKSt3__112basic_stringIcNS_11char_traitsIcEENS_9allocatorIcEEE5c_strB8ue170006Ev, symObjAddr: 0xA050, symBinAddr: 0x10000B49C, symSize: 0x24 }
  - { offsetInCU: 0x1BCBE, offset: 0x1BCBE, size: 0x8, addend: 0x0, symName: __ZNKSt3__19basic_iosIcNS_11char_traitsIcEEE4failB8ue170006Ev, symObjAddr: 0xA074, symBinAddr: 0x10000B4C0, symSize: 0x28 }
  - { offsetInCU: 0x1BCE4, offset: 0x1BCE4, size: 0x8, addend: 0x0, symName: __ZNKSt3__18ios_base4failB8ue170006Ev, symObjAddr: 0xA09C, symBinAddr: 0x10000B4E8, symSize: 0x9C }
  - { offsetInCU: 0x1BD0C, offset: 0x1BD0C, size: 0x8, addend: 0x0, symName: __ZNSt3__119istreambuf_iteratorIcNS_11char_traitsIcEEEC2B8ue170006ERNS_13basic_istreamIcS2_EE, symObjAddr: 0xA138, symBinAddr: 0x10000B584, symSize: 0x10C }
  - { offsetInCU: 0x1BD62, offset: 0x1BD62, size: 0x8, addend: 0x0, symName: __ZNKSt3__113basic_istreamIcNS_11char_traitsIcEEE6sentrycvbB8ue170006Ev, symObjAddr: 0xA8CC, symBinAddr: 0x10000BD18, symSize: 0x88 }
  - { offsetInCU: 0x1BD88, offset: 0x1BD88, size: 0x8, addend: 0x0, symName: __ZNSt3__112basic_stringIcNS_11char_traitsIcEENS_9allocatorIcEEE5clearB8ue170006Ev, symObjAddr: 0xA954, symBinAddr: 0x10000BDA0, symSize: 0x30C }
  - { offsetInCU: 0x1BDB1, offset: 0x1BDB1, size: 0x8, addend: 0x0, symName: __ZNSt3__111char_traitsIcE12to_char_typeB8ue170006Ei, symObjAddr: 0xAC60, symBinAddr: 0x10000C0AC, symSize: 0x18 }
  - { offsetInCU: 0x1BDD4, offset: 0x1BDD4, size: 0x8, addend: 0x0, symName: __ZNSt3__111char_traitsIcE2eqEcc, symObjAddr: 0xAC78, symBinAddr: 0x10000C0C4, symSize: 0x28 }
  - { offsetInCU: 0x1BE05, offset: 0x1BE05, size: 0x8, addend: 0x0, symName: __ZNKSt3__112basic_stringIcNS_11char_traitsIcEENS_9allocatorIcEEE8max_sizeB8ue170006Ev, symObjAddr: 0xACA0, symBinAddr: 0x10000C0EC, symSize: 0xBC }
  - { offsetInCU: 0x1BE57, offset: 0x1BE57, size: 0x8, addend: 0x0, symName: __ZNSt3__18ios_base18__setstate_nothrowB8ue170006Ej, symObjAddr: 0xAD5C, symBinAddr: 0x10000C1A8, symSize: 0x178 }
  - { offsetInCU: 0x1BE8C, offset: 0x1BE8C, size: 0x8, addend: 0x0, symName: __ZNKSt3__19basic_iosIcNS_11char_traitsIcEEE10exceptionsB8ue170006Ev, symObjAddr: 0xAED4, symBinAddr: 0x10000C320, symSize: 0x24 }
  - { offsetInCU: 0x1BEB2, offset: 0x1BEB2, size: 0x8, addend: 0x0, symName: __ZNSt3__111char_traitsIcE6assignB8ue170006ERcRKc, symObjAddr: 0xAEF8, symBinAddr: 0x10000C344, symSize: 0xF4 }
  - { offsetInCU: 0x1BEE3, offset: 0x1BEE3, size: 0x8, addend: 0x0, symName: __ZNSt3__112basic_stringIcNS_11char_traitsIcEENS_9allocatorIcEEE15__set_long_sizeB8ue170006Em, symObjAddr: 0xAFEC, symBinAddr: 0x10000C438, symSize: 0x80 }
  - { offsetInCU: 0x1BF18, offset: 0x1BF18, size: 0x8, addend: 0x0, symName: __ZNSt3__112basic_stringIcNS_11char_traitsIcEENS_9allocatorIcEEE16__set_short_sizeB8ue170006Em, symObjAddr: 0xB06C, symBinAddr: 0x10000C4B8, symSize: 0x130 }
  - { offsetInCU: 0x1BF57, offset: 0x1BF57, size: 0x8, addend: 0x0, symName: __ZNSt3__116allocator_traitsINS_9allocatorIcEEE8max_sizeB8ue170006IS2_vvEEmRKS2_, symObjAddr: 0xB19C, symBinAddr: 0x10000C5E8, symSize: 0x28 }
  - { offsetInCU: 0x1BF83, offset: 0x1BF83, size: 0x8, addend: 0x0, symName: __ZNKSt3__112basic_stringIcNS_11char_traitsIcEENS_9allocatorIcEEE7__allocB8ue170006Ev, symObjAddr: 0xB1C4, symBinAddr: 0x10000C610, symSize: 0x24 }
  - { offsetInCU: 0x1BFA9, offset: 0x1BFA9, size: 0x8, addend: 0x0, symName: __ZNSt3__114numeric_limitsImE3maxB8ue170006Ev, symObjAddr: 0xB1E8, symBinAddr: 0x10000C634, symSize: 0x14 }
  - { offsetInCU: 0x1BFBD, offset: 0x1BFBD, size: 0x8, addend: 0x0, symName: __ZNKSt3__117__compressed_pairINS_12basic_stringIcNS_11char_traitsIcEENS_9allocatorIcEEE5__repES5_E6secondB8ue170006Ev, symObjAddr: 0xB1FC, symBinAddr: 0x10000C648, symSize: 0x24 }
  - { offsetInCU: 0x1BFE3, offset: 0x1BFE3, size: 0x8, addend: 0x0, symName: __ZNKSt3__122__compressed_pair_elemINS_9allocatorIcEELi1ELb1EE5__getB8ue170006Ev, symObjAddr: 0xB220, symBinAddr: 0x10000C66C, symSize: 0x14 }
  - { offsetInCU: 0x1C009, offset: 0x1C009, size: 0x8, addend: 0x0, symName: __ZNSt3__123__libcpp_numeric_limitsImLb1EE3maxB8ue170006Ev, symObjAddr: 0xB234, symBinAddr: 0x10000C680, symSize: 0x8 }
  - { offsetInCU: 0x1C01D, offset: 0x1C01D, size: 0x8, addend: 0x0, symName: __ZNKSt3__18ios_base10exceptionsB8ue170006Ev, symObjAddr: 0xB23C, symBinAddr: 0x10000C688, symSize: 0x8C }
  - { offsetInCU: 0x3C, offset: 0x1C189, size: 0x8, addend: 0x0, symName: _.str, symObjAddr: 0xABC0, symBinAddr: 0x1000307C0, symSize: 0x0 }
  - { offsetInCU: 0x6D, offset: 0x1C1BA, size: 0x8, addend: 0x0, symName: _.str.1, symObjAddr: 0xABE0, symBinAddr: 0x1000307E0, symSize: 0x0 }
  - { offsetInCU: 0x98, offset: 0x1C1E5, size: 0x8, addend: 0x0, symName: __ZNSt3__18in_placeE, symObjAddr: 0xAC01, symBinAddr: 0x100031980, symSize: 0x0 }
  - { offsetInCU: 0xCA, offset: 0x1C217, size: 0x8, addend: 0x0, symName: __ZNSt3__17nulloptE, symObjAddr: 0xAC00, symBinAddr: 0x10003197F, symSize: 0x0 }
  - { offsetInCU: 0x4774, offset: 0x208C1, size: 0x8, addend: 0x0, symName: __ZNSt3__112construct_atB8ue170006IN6tokens5tokenEJRKS2_EPS2_EEPT_S7_DpOT0_, symObjAddr: 0x2388, symBinAddr: 0x10000E864, symSize: 0x40 }
  - { offsetInCU: 0x47E6, offset: 0x20933, size: 0x8, addend: 0x0, symName: __ZNSt3__13maxB8ue170006ImEERKT_S3_S3_, symObjAddr: 0x33BC, symBinAddr: 0x10000F860, symSize: 0x2C }
  - { offsetInCU: 0x4829, offset: 0x20976, size: 0x8, addend: 0x0, symName: __ZNSt3__13minB8ue170006ImEERKT_S3_S3_, symObjAddr: 0x33E8, symBinAddr: 0x10000F88C, symSize: 0x2C }
  - { offsetInCU: 0x4A56, offset: 0x20BA3, size: 0x8, addend: 0x0, symName: __ZNSt3__13minB8ue170006ImNS_6__lessIvvEEEERKT_S5_S5_T0_, symObjAddr: 0x3478, symBinAddr: 0x10000F91C, symSize: 0x1E8 }
  - { offsetInCU: 0x4AFD, offset: 0x20C4A, size: 0x8, addend: 0x0, symName: __ZNSt3__120__throw_length_errorB8ue170006EPKc, symObjAddr: 0x3778, symBinAddr: 0x10000FC00, symSize: 0x68 }
  - { offsetInCU: 0x4B28, offset: 0x20C75, size: 0x8, addend: 0x0, symName: __ZNSt3__13maxB8ue170006ImNS_6__lessIvvEEEERKT_S5_S5_T0_, symObjAddr: 0x38A0, symBinAddr: 0x10000FD28, symSize: 0x1E8 }
  - { offsetInCU: 0x4B88, offset: 0x20CD5, size: 0x8, addend: 0x0, symName: __ZNSt3__119__allocate_at_leastB8ue170006INS_9allocatorIN6tokens5tokenEEEEENS_19__allocation_resultINS_16allocator_traitsIT_E7pointerEEERS7_m, symObjAddr: 0x3FE4, symBinAddr: 0x10001046C, symSize: 0x28C }
  - { offsetInCU: 0x4BCD, offset: 0x20D1A, size: 0x8, addend: 0x0, symName: __ZNSt3__117__libcpp_allocateB8ue170006Emm, symObjAddr: 0x4470, symBinAddr: 0x100010894, symSize: 0x60 }
  - { offsetInCU: 0x4C27, offset: 0x20D74, size: 0x8, addend: 0x0, symName: __ZNSt3__121__libcpp_operator_newB8ue170006IJmSt11align_val_tEEEPvDpT_, symObjAddr: 0x44F0, symBinAddr: 0x1000108F4, symSize: 0x2C }
  - { offsetInCU: 0x4C74, offset: 0x20DC1, size: 0x8, addend: 0x0, symName: __ZNSt3__121__libcpp_operator_newB8ue170006IJmEEEPvDpT_, symObjAddr: 0x451C, symBinAddr: 0x100010920, symSize: 0x24 }
  - { offsetInCU: 0x4CAD, offset: 0x20DFA, size: 0x8, addend: 0x0, symName: __ZNSt3__142__uninitialized_allocator_move_if_noexceptB8ue170006INS_9allocatorIN6tokens5tokenEEENS_16reverse_iteratorIPS3_EES7_S3_vEET1_RT_T0_SB_S8_, symObjAddr: 0x46B8, symBinAddr: 0x1000109F0, symSize: 0x4A8 }
  - { offsetInCU: 0x4D38, offset: 0x20E85, size: 0x8, addend: 0x0, symName: __ZNSt3__14swapB8ue170006IPN6tokens5tokenEEENS_9enable_ifIXaasr21is_move_constructibleIT_EE5valuesr18is_move_assignableIS5_EE5valueEvE4typeERS5_S8_, symObjAddr: 0x4BF8, symBinAddr: 0x100010F30, symSize: 0x134 }
  - { offsetInCU: 0x4D8A, offset: 0x20ED7, size: 0x8, addend: 0x0, symName: __ZNSt3__14moveB8ue170006INS_16reverse_iteratorIPN6tokens5tokenEEES5_EET0_T_S7_S6_, symObjAddr: 0x4DEC, symBinAddr: 0x100011124, symSize: 0x4B0 }
  - { offsetInCU: 0x4DF1, offset: 0x20F3E, size: 0x8, addend: 0x0, symName: __ZNSt3__16__moveB8ue170006INS_17_ClassicAlgPolicyENS_16reverse_iteratorIPN6tokens5tokenEEES6_S6_EENS_4pairIT0_T2_EES8_T1_S9_, symObjAddr: 0x529C, symBinAddr: 0x1000115D4, symSize: 0x424 }
  - { offsetInCU: 0x4E69, offset: 0x20FB6, size: 0x8, addend: 0x0, symName: __ZNSt3__123__dispatch_copy_or_moveB8ue170006INS_17_ClassicAlgPolicyENS_11__move_loopIS1_EENS_14__move_trivialENS_16reverse_iteratorIPN6tokens5tokenEEES9_S9_EENS_4pairIT2_T4_EESB_T3_SC_, symObjAddr: 0x56C0, symBinAddr: 0x1000119F8, symSize: 0x424 }
  - { offsetInCU: 0x4EF3, offset: 0x21040, size: 0x8, addend: 0x0, symName: __ZNSt3__121__unwrap_and_dispatchB8ue170006INS_10__overloadINS_11__move_loopINS_17_ClassicAlgPolicyEEENS_14__move_trivialEEENS_16reverse_iteratorIPN6tokens5tokenEEESB_SB_Li0EEENS_4pairIT0_T2_EESD_T1_SE_, symObjAddr: 0x5AE4, symBinAddr: 0x100011E1C, symSize: 0x880 }
  - { offsetInCU: 0x4F99, offset: 0x210E6, size: 0x8, addend: 0x0, symName: __ZNSt3__114__unwrap_rangeB8ue170006INS_16reverse_iteratorIPN6tokens5tokenEEES5_EEDaT_T0_, symObjAddr: 0x6364, symBinAddr: 0x10001269C, symSize: 0x35C }
  - { offsetInCU: 0x511D, offset: 0x2126A, size: 0x8, addend: 0x0, symName: __ZNSt3__113__unwrap_iterB8ue170006INS_16reverse_iteratorIPN6tokens5tokenEEENS_18__unwrap_iter_implIS5_Lb0EEELi0EEEDTclsrT0_8__unwrapclsr3stdE7declvalIT_EEEES9_, symObjAddr: 0x6A04, symBinAddr: 0x100012D3C, symSize: 0x2EC }
  - { offsetInCU: 0x5165, offset: 0x212B2, size: 0x8, addend: 0x0, symName: __ZNSt3__19make_pairB8ue170006INS_16reverse_iteratorIPN6tokens5tokenEEES5_EENS_4pairINS_18__unwrap_ref_decayIT_E4typeENS7_IT0_E4typeEEEOS8_OSB_, symObjAddr: 0x6CF0, symBinAddr: 0x100013028, symSize: 0x38 }
  - { offsetInCU: 0x51B4, offset: 0x21301, size: 0x8, addend: 0x0, symName: __ZNSt3__114__rewrap_rangeB8ue170006INS_16reverse_iteratorIPN6tokens5tokenEEES5_S5_EET0_S6_T1_, symObjAddr: 0x6D28, symBinAddr: 0x100013060, symSize: 0x3D4 }
  - { offsetInCU: 0x5211, offset: 0x2135E, size: 0x8, addend: 0x0, symName: __ZNSt3__113__rewrap_iterB8ue170006INS_16reverse_iteratorIPN6tokens5tokenEEES5_NS_18__unwrap_iter_implIS5_Lb0EEEEET_S8_T0_, symObjAddr: 0x70FC, symBinAddr: 0x100013434, symSize: 0x3E8 }
  - { offsetInCU: 0x52BE, offset: 0x2140B, size: 0x8, addend: 0x0, symName: __ZNSt3__1neB8ue170006IPN6tokens5tokenES3_EEbRKNS_16reverse_iteratorIT_EERKNS4_IT0_EE, symObjAddr: 0x79BC, symBinAddr: 0x100013CF4, symSize: 0x48 }
  - { offsetInCU: 0x53BD, offset: 0x2150A, size: 0x8, addend: 0x0, symName: __ZNSt3__1eqB8ue170006IcNS_11char_traitsIcEENS_9allocatorIcEEEEbRKNS_12basic_stringIT_T0_T1_EEPKS6_, symObjAddr: 0x8BA0, symBinAddr: 0x100014CF4, symSize: 0x2EC }
  - { offsetInCU: 0x5417, offset: 0x21564, size: 0x8, addend: 0x0, symName: __ZNSt3__1eqB8ue170006IcNS_11char_traitsIcEEEEbNS_17basic_string_viewIT_T0_EES6_, symObjAddr: 0x90FC, symBinAddr: 0x100015250, symSize: 0x348 }
  - { offsetInCU: 0x546E, offset: 0x215BB, size: 0x8, addend: 0x0, symName: __ZNSt3__128__char_traits_length_checkedB8ue170006INS_11char_traitsIcEEEEmPKNT_9char_typeE, symObjAddr: 0xA100, symBinAddr: 0x100015EDC, symSize: 0x24 }
  - { offsetInCU: 0x54A5, offset: 0x215F2, size: 0x8, addend: 0x0, symName: __ZNSt3__127__throw_bad_optional_accessB8ue170006Ev, symObjAddr: 0xA7D8, symBinAddr: 0x1000163FC, symSize: 0x4C }
  - { offsetInCU: 0x56C8, offset: 0x21815, size: 0x8, addend: 0x0, symName: __ZSt28__throw_bad_array_new_lengthB8ue170006v, symObjAddr: 0x4438, symBinAddr: 0x10001085C, symSize: 0x38 }
  - { offsetInCU: 0x574E, offset: 0x2189B, size: 0x8, addend: 0x0, symName: __ZN6tokensL17try_match_keywordEPNSt3__112basic_stringIcNS0_11char_traitsIcEENS0_9allocatorIcEEEENS_5tokenE, symObjAddr: 0xD0C, symBinAddr: 0x10000D4B8, symSize: 0x464 }
  - { offsetInCU: 0x5A15, offset: 0x21B62, size: 0x8, addend: 0x0, symName: __ZNSt3__16vectorIN6tokens5tokenENS_9allocatorIS2_EEE26__swap_out_circular_bufferERNS_14__split_bufferIS2_RS4_EE, symObjAddr: 0x2B08, symBinAddr: 0x10000EFAC, symSize: 0x56C }
  - { offsetInCU: 0x6AE9, offset: 0x22C36, size: 0x8, addend: 0x0, symName: __Z7isalnumi, symObjAddr: 0xC7C, symBinAddr: 0x10000D428, symSize: 0x28 }
  - { offsetInCU: 0x7A27, offset: 0x23B74, size: 0x8, addend: 0x0, symName: __ZN8scanning10scan_tokenEPNS_7scannerE, symObjAddr: 0x1328, symBinAddr: 0x10000DAD4, symSize: 0x9C }
  - { offsetInCU: 0x7A4F, offset: 0x23B9C, size: 0x8, addend: 0x0, symName: __ZN8scanning4scanEPNS_7scannerE, symObjAddr: 0x14F8, symBinAddr: 0x10000DCA4, symSize: 0x3C }
  - { offsetInCU: 0x7A89, offset: 0x23BD6, size: 0x8, addend: 0x0, symName: __Z10save_tokenPN8scanning7scannerEN6tokens10token_typeE, symObjAddr: 0x0, symBinAddr: 0x10000C7AC, symSize: 0x324 }
  - { offsetInCU: 0x7AD5, offset: 0x23C22, size: 0x8, addend: 0x0, symName: __ZN6tokens5token4makeENS_10token_typeEmmm, symObjAddr: 0x324, symBinAddr: 0x10000CAD0, symSize: 0x170 }
  - { offsetInCU: 0x7B21, offset: 0x23C6E, size: 0x8, addend: 0x0, symName: __ZNSt3__16vectorIN6tokens5tokenENS_9allocatorIS2_EEE9push_backB8ue170006ERKS2_, symObjAddr: 0x494, symBinAddr: 0x10000CC40, symSize: 0xE0 }
  - { offsetInCU: 0x7B58, offset: 0x23CA5, size: 0x8, addend: 0x0, symName: __Z12parse_stringPN8scanning7scannerE, symObjAddr: 0x574, symBinAddr: 0x10000CD20, symSize: 0x64 }
  - { offsetInCU: 0x7B81, offset: 0x23CCE, size: 0x8, addend: 0x0, symName: __ZN8scanning7scanner4skipEv, symObjAddr: 0x5D8, symBinAddr: 0x10000CD84, symSize: 0xAC }
  - { offsetInCU: 0x7BA7, offset: 0x23CF4, size: 0x8, addend: 0x0, symName: __ZN8scanning7scanner7currentEv, symObjAddr: 0x684, symBinAddr: 0x10000CE30, symSize: 0x130 }
  - { offsetInCU: 0x7BCD, offset: 0x23D1A, size: 0x8, addend: 0x0, symName: __ZN8scanning7scanner7advanceEv, symObjAddr: 0x7B4, symBinAddr: 0x10000CF60, symSize: 0x6C }
  - { offsetInCU: 0x7BF2, offset: 0x23D3F, size: 0x8, addend: 0x0, symName: __Z11parse_identPN8scanning7scannerE, symObjAddr: 0x820, symBinAddr: 0x10000CFCC, symSize: 0x45C }
  - { offsetInCU: 0x7C42, offset: 0x23D8F, size: 0x8, addend: 0x0, symName: __ZNSt3__16vectorIN6tokens5tokenENS_9allocatorIS2_EEE4backB8ue170006Ev, symObjAddr: 0xCA4, symBinAddr: 0x10000D450, symSize: 0x68 }
  - { offsetInCU: 0x7C95, offset: 0x23DE2, size: 0x8, addend: 0x0, symName: __ZNKSt3__123__optional_storage_baseIN6tokens10token_typeELb0EE9has_valueB8ue170006Ev, symObjAddr: 0x1170, symBinAddr: 0x10000D91C, symSize: 0x8C }
  - { offsetInCU: 0x7CBA, offset: 0x23E07, size: 0x8, addend: 0x0, symName: __ZNSt3__16vectorIN6tokens5tokenENS_9allocatorIS2_EEE8pop_backEv, symObjAddr: 0x11FC, symBinAddr: 0x10000D9A8, symSize: 0x6C }
  - { offsetInCU: 0x7D1A, offset: 0x23E67, size: 0x8, addend: 0x0, symName: __ZNRSt3__18optionalIN6tokens10token_typeEE5valueB8ue170006Ev, symObjAddr: 0x1268, symBinAddr: 0x10000DA14, symSize: 0x40 }
  - { offsetInCU: 0x7D3F, offset: 0x23E8C, size: 0x8, addend: 0x0, symName: __Z13parse_newlinePN8scanning7scannerE, symObjAddr: 0x12A8, symBinAddr: 0x10000DA54, symSize: 0x80 }
  - { offsetInCU: 0x7D68, offset: 0x23EB5, size: 0x8, addend: 0x0, symName: __ZN8scanning7scanner15start_new_tokenEv, symObjAddr: 0x1454, symBinAddr: 0x10000DC00, symSize: 0xA4 }
  - { offsetInCU: 0x7D8E, offset: 0x23EDB, size: 0x8, addend: 0x0, symName: __ZN8scanning7scanner4doneEv, symObjAddr: 0x1534, symBinAddr: 0x10000DCE0, symSize: 0xB8 }
  - { offsetInCU: 0x7DB4, offset: 0x23F01, size: 0x8, addend: 0x0, symName: __ZNSt3__16vectorIN6tokens5tokenENS_9allocatorIS2_EEE9__end_capB8ue170006Ev, symObjAddr: 0x15EC, symBinAddr: 0x10000DD98, symSize: 0x28 }
  - { offsetInCU: 0x7DDF, offset: 0x23F2C, size: 0x8, addend: 0x0, symName: __ZNSt3__16vectorIN6tokens5tokenENS_9allocatorIS2_EEE22__construct_one_at_endB8ue170006IJRKS2_EEEvDpOT_, symObjAddr: 0x1614, symBinAddr: 0x10000DDC0, symSize: 0x36C }
  - { offsetInCU: 0x7E33, offset: 0x23F80, size: 0x8, addend: 0x0, symName: __ZNSt3__16vectorIN6tokens5tokenENS_9allocatorIS2_EEE21__push_back_slow_pathIRKS2_EEvOT_, symObjAddr: 0x1980, symBinAddr: 0x10000E12C, symSize: 0x3C0 }
  - { offsetInCU: 0x7E99, offset: 0x23FE6, size: 0x8, addend: 0x0, symName: __ZNSt3__117__compressed_pairIPN6tokens5tokenENS_9allocatorIS2_EEE5firstB8ue170006Ev, symObjAddr: 0x1D40, symBinAddr: 0x10000E4EC, symSize: 0x24 }
  - { offsetInCU: 0x7EBF, offset: 0x2400C, size: 0x8, addend: 0x0, symName: __ZNSt3__122__compressed_pair_elemIPN6tokens5tokenELi0ELb0EE5__getB8ue170006Ev, symObjAddr: 0x1D64, symBinAddr: 0x10000E510, symSize: 0x14 }
  - { offsetInCU: 0x7EFE, offset: 0x2404B, size: 0x8, addend: 0x0, symName: __ZNSt3__16vectorIN6tokens5tokenENS_9allocatorIS2_EEE21_ConstructTransactionC1B8ue170006ERS5_m, symObjAddr: 0x1D78, symBinAddr: 0x10000E524, symSize: 0x3C }
  - { offsetInCU: 0x7F46, offset: 0x24093, size: 0x8, addend: 0x0, symName: __ZNSt3__116allocator_traitsINS_9allocatorIN6tokens5tokenEEEE9constructB8ue170006IS3_JRKS3_EvvEEvRS4_PT_DpOT0_, symObjAddr: 0x1DB4, symBinAddr: 0x10000E560, symSize: 0x30 }
  - { offsetInCU: 0x7F9B, offset: 0x240E8, size: 0x8, addend: 0x0, symName: __ZNSt3__16vectorIN6tokens5tokenENS_9allocatorIS2_EEE21_ConstructTransactionD1B8ue170006Ev, symObjAddr: 0x1E20, symBinAddr: 0x10000E590, symSize: 0x2C }
  - { offsetInCU: 0x7FC5, offset: 0x24112, size: 0x8, addend: 0x0, symName: __ZNSt3__16vectorIN6tokens5tokenENS_9allocatorIS2_EEE21_ConstructTransactionC2B8ue170006ERS5_m, symObjAddr: 0x1E4C, symBinAddr: 0x10000E5BC, symSize: 0x1D0 }
  - { offsetInCU: 0x800D, offset: 0x2415A, size: 0x8, addend: 0x0, symName: __ZNKSt3__16vectorIN6tokens5tokenENS_9allocatorIS2_EEE19__annotate_increaseB8ue170006Em, symObjAddr: 0x201C, symBinAddr: 0x10000E78C, symSize: 0xD8 }
  - { offsetInCU: 0x8042, offset: 0x2418F, size: 0x8, addend: 0x0, symName: __ZNSt3__16vectorIN6tokens5tokenENS_9allocatorIS2_EEE21_ConstructTransactionD2B8ue170006Ev, symObjAddr: 0x2400, symBinAddr: 0x10000E8A4, symSize: 0x278 }
  - { offsetInCU: 0x806C, offset: 0x241B9, size: 0x8, addend: 0x0, symName: __ZNKSt3__16vectorIN6tokens5tokenENS_9allocatorIS2_EEE17__annotate_shrinkB8ue170006Em, symObjAddr: 0x2678, symBinAddr: 0x10000EB1C, symSize: 0xC8 }
  - { offsetInCU: 0x80A0, offset: 0x241ED, size: 0x8, addend: 0x0, symName: __ZNKSt3__16vectorIN6tokens5tokenENS_9allocatorIS2_EEE11__recommendB8ue170006Em, symObjAddr: 0x2740, symBinAddr: 0x10000EBE4, symSize: 0x384 }
  - { offsetInCU: 0x80FD, offset: 0x2424A, size: 0x8, addend: 0x0, symName: __ZNSt3__114__split_bufferIN6tokens5tokenERNS_9allocatorIS2_EEEC1EmmS5_, symObjAddr: 0x2AC4, symBinAddr: 0x10000EF68, symSize: 0x44 }
  - { offsetInCU: 0x8153, offset: 0x242A0, size: 0x8, addend: 0x0, symName: __ZNSt3__114__split_bufferIN6tokens5tokenERNS_9allocatorIS2_EEED1Ev, symObjAddr: 0x3074, symBinAddr: 0x10000F518, symSize: 0x2C }
  - { offsetInCU: 0x817E, offset: 0x242CB, size: 0x8, addend: 0x0, symName: __ZNKSt3__16vectorIN6tokens5tokenENS_9allocatorIS2_EEE8max_sizeEv, symObjAddr: 0x30A0, symBinAddr: 0x10000F544, symSize: 0x2FC }
  - { offsetInCU: 0x81A8, offset: 0x242F5, size: 0x8, addend: 0x0, symName: __ZNKSt3__16vectorIN6tokens5tokenENS_9allocatorIS2_EEE20__throw_length_errorB8ue170006Ev, symObjAddr: 0x339C, symBinAddr: 0x10000F840, symSize: 0x20 }
  - { offsetInCU: 0x81D8, offset: 0x24325, size: 0x8, addend: 0x0, symName: __ZNSt3__116allocator_traitsINS_9allocatorIN6tokens5tokenEEEE8max_sizeB8ue170006IS4_vvEEmRKS4_, symObjAddr: 0x3414, symBinAddr: 0x10000F8B8, symSize: 0x28 }
  - { offsetInCU: 0x8204, offset: 0x24351, size: 0x8, addend: 0x0, symName: __ZNKSt3__16vectorIN6tokens5tokenENS_9allocatorIS2_EEE7__allocB8ue170006Ev, symObjAddr: 0x343C, symBinAddr: 0x10000F8E0, symSize: 0x28 }
  - { offsetInCU: 0x822A, offset: 0x24377, size: 0x8, addend: 0x0, symName: __ZNSt3__114numeric_limitsIlE3maxB8ue170006Ev, symObjAddr: 0x3464, symBinAddr: 0x10000F908, symSize: 0x14 }
  - { offsetInCU: 0x8252, offset: 0x2439F, size: 0x8, addend: 0x0, symName: __ZNKSt3__16__lessIvvEclB8ue170006ImmEEbRKT_RKT0_, symObjAddr: 0x3660, symBinAddr: 0x10000FB04, symSize: 0xBC }
  - { offsetInCU: 0x82A6, offset: 0x243F3, size: 0x8, addend: 0x0, symName: __ZNKSt3__117__compressed_pairIPN6tokens5tokenENS_9allocatorIS2_EEE6secondB8ue170006Ev, symObjAddr: 0x3738, symBinAddr: 0x10000FBC0, symSize: 0x24 }
  - { offsetInCU: 0x82CC, offset: 0x24419, size: 0x8, addend: 0x0, symName: __ZNKSt3__122__compressed_pair_elemINS_9allocatorIN6tokens5tokenEEELi1ELb1EE5__getB8ue170006Ev, symObjAddr: 0x375C, symBinAddr: 0x10000FBE4, symSize: 0x14 }
  - { offsetInCU: 0x82F2, offset: 0x2443F, size: 0x8, addend: 0x0, symName: __ZNSt3__123__libcpp_numeric_limitsIlLb1EE3maxB8ue170006Ev, symObjAddr: 0x3770, symBinAddr: 0x10000FBF8, symSize: 0x8 }
  - { offsetInCU: 0x8306, offset: 0x24453, size: 0x8, addend: 0x0, symName: __ZNSt12length_errorC1B8ue170006EPKc, symObjAddr: 0x37E0, symBinAddr: 0x10000FC68, symSize: 0x34 }
  - { offsetInCU: 0x833E, offset: 0x2448B, size: 0x8, addend: 0x0, symName: __ZNSt12length_errorC2B8ue170006EPKc, symObjAddr: 0x3814, symBinAddr: 0x10000FC9C, symSize: 0x8C }
  - { offsetInCU: 0x8376, offset: 0x244C3, size: 0x8, addend: 0x0, symName: __ZNSt3__114__split_bufferIN6tokens5tokenERNS_9allocatorIS2_EEEC2EmmS5_, symObjAddr: 0x3A88, symBinAddr: 0x10000FF10, symSize: 0x520 }
  - { offsetInCU: 0x83F6, offset: 0x24543, size: 0x8, addend: 0x0, symName: __ZNSt3__117__compressed_pairIPN6tokens5tokenERNS_9allocatorIS2_EEEC1B8ue170006IDnS6_EEOT_OT0_, symObjAddr: 0x3FA8, symBinAddr: 0x100010430, symSize: 0x3C }
  - { offsetInCU: 0x844E, offset: 0x2459B, size: 0x8, addend: 0x0, symName: __ZNSt3__114__split_bufferIN6tokens5tokenERNS_9allocatorIS2_EEE7__allocB8ue170006Ev, symObjAddr: 0x4270, symBinAddr: 0x1000106F8, symSize: 0x28 }
  - { offsetInCU: 0x8474, offset: 0x245C1, size: 0x8, addend: 0x0, symName: __ZNSt3__114__split_bufferIN6tokens5tokenERNS_9allocatorIS2_EEE9__end_capB8ue170006Ev, symObjAddr: 0x4298, symBinAddr: 0x100010720, symSize: 0x28 }
  - { offsetInCU: 0x849A, offset: 0x245E7, size: 0x8, addend: 0x0, symName: __ZNSt3__117__compressed_pairIPN6tokens5tokenERNS_9allocatorIS2_EEEC2B8ue170006IDnS6_EEOT_OT0_, symObjAddr: 0x42C0, symBinAddr: 0x100010748, symSize: 0x48 }
  - { offsetInCU: 0x84F2, offset: 0x2463F, size: 0x8, addend: 0x0, symName: __ZNSt3__122__compressed_pair_elemIRNS_9allocatorIN6tokens5tokenEEELi1ELb0EEC2B8ue170006IS5_vEEOT_, symObjAddr: 0x436C, symBinAddr: 0x100010790, symSize: 0x70 }
  - { offsetInCU: 0x8534, offset: 0x24681, size: 0x8, addend: 0x0, symName: __ZNSt3__19allocatorIN6tokens5tokenEE8allocateB8ue170006Em, symObjAddr: 0x43DC, symBinAddr: 0x100010800, symSize: 0x5C }
  - { offsetInCU: 0x8568, offset: 0x246B5, size: 0x8, addend: 0x0, symName: __ZNSt3__117__compressed_pairIPN6tokens5tokenERNS_9allocatorIS2_EEE6secondB8ue170006Ev, symObjAddr: 0x4540, symBinAddr: 0x100010944, symSize: 0x28 }
  - { offsetInCU: 0x858E, offset: 0x246DB, size: 0x8, addend: 0x0, symName: __ZNSt3__122__compressed_pair_elemIRNS_9allocatorIN6tokens5tokenEEELi1ELb0EE5__getB8ue170006Ev, symObjAddr: 0x4568, symBinAddr: 0x10001096C, symSize: 0x60 }
  - { offsetInCU: 0x85B4, offset: 0x24701, size: 0x8, addend: 0x0, symName: __ZNSt3__117__compressed_pairIPN6tokens5tokenERNS_9allocatorIS2_EEE5firstB8ue170006Ev, symObjAddr: 0x45C8, symBinAddr: 0x1000109CC, symSize: 0x24 }
  - { offsetInCU: 0x85DA, offset: 0x24727, size: 0x8, addend: 0x0, symName: __ZNSt3__116reverse_iteratorIPN6tokens5tokenEEC1B8ue170006ES3_, symObjAddr: 0x4B60, symBinAddr: 0x100010E98, symSize: 0x34 }
  - { offsetInCU: 0x8612, offset: 0x2475F, size: 0x8, addend: 0x0, symName: __ZNKSt3__116reverse_iteratorIPN6tokens5tokenEE4baseB8ue170006Ev, symObjAddr: 0x4B94, symBinAddr: 0x100010ECC, symSize: 0x64 }
  - { offsetInCU: 0x8638, offset: 0x24785, size: 0x8, addend: 0x0, symName: __ZNKSt3__16vectorIN6tokens5tokenENS_9allocatorIS2_EEE14__annotate_newB8ue170006Em, symObjAddr: 0x4D2C, symBinAddr: 0x100011064, symSize: 0xC0 }
  - { offsetInCU: 0x8690, offset: 0x247DD, size: 0x8, addend: 0x0, symName: __ZNKSt3__111__move_loopINS_17_ClassicAlgPolicyEEclB8ue170006INS_16reverse_iteratorIPN6tokens5tokenEEES8_S8_EENS_4pairIT_T1_EESA_T0_SB_, symObjAddr: 0x66C0, symBinAddr: 0x1000129F8, symSize: 0x344 }
  - { offsetInCU: 0x8708, offset: 0x24855, size: 0x8, addend: 0x0, symName: __ZNSt3__119__unwrap_range_implINS_16reverse_iteratorIPN6tokens5tokenEEES5_E8__unwrapB8ue170006ES5_S5_, symObjAddr: 0x74E4, symBinAddr: 0x10001381C, symSize: 0x448 }
  - { offsetInCU: 0x8746, offset: 0x24893, size: 0x8, addend: 0x0, symName: __ZNSt3__14pairINS_16reverse_iteratorIPN6tokens5tokenEEES5_EC1B8ue170006IS5_S5_LPv0EEEOT_OT0_, symObjAddr: 0x792C, symBinAddr: 0x100013C64, symSize: 0x3C }
  - { offsetInCU: 0x87A5, offset: 0x248F2, size: 0x8, addend: 0x0, symName: __ZNSt3__14pairINS_16reverse_iteratorIPN6tokens5tokenEEES5_EC2B8ue170006IS5_S5_LPv0EEEOT_OT0_, symObjAddr: 0x7968, symBinAddr: 0x100013CA0, symSize: 0x54 }
  - { offsetInCU: 0x8809, offset: 0x24956, size: 0x8, addend: 0x0, symName: __ZNSt3__18_IterOpsINS_17_ClassicAlgPolicyEE11__iter_moveB8ue170006IRNS_16reverse_iteratorIPN6tokens5tokenEEEEENS_9enable_ifIXsr12is_referenceIDTdeclsr3stdE7declvalIRT_EEEEE5valueEDTclsr3stdE4movedeclsr3stdE7declvalISC_EEEEE4typeEOSB_, symObjAddr: 0x7A04, symBinAddr: 0x100013D3C, symSize: 0x28 }
  - { offsetInCU: 0x8835, offset: 0x24982, size: 0x8, addend: 0x0, symName: __ZNKSt3__116reverse_iteratorIPN6tokens5tokenEEdeB8ue170006Ev, symObjAddr: 0x7A2C, symBinAddr: 0x100013D64, symSize: 0x74 }
  - { offsetInCU: 0x886A, offset: 0x249B7, size: 0x8, addend: 0x0, symName: __ZNSt3__116reverse_iteratorIPN6tokens5tokenEEppB8ue170006Ev, symObjAddr: 0x7AA0, symBinAddr: 0x100013DD8, symSize: 0x6C }
  - { offsetInCU: 0x8890, offset: 0x249DD, size: 0x8, addend: 0x0, symName: __ZNSt3__18_IterOpsINS_17_ClassicAlgPolicyEE25__validate_iter_referenceB8ue170006IRNS_16reverse_iteratorIPN6tokens5tokenEEEEEvv, symObjAddr: 0x7B0C, symBinAddr: 0x100013E44, symSize: 0x4 }
  - { offsetInCU: 0x88AE, offset: 0x249FB, size: 0x8, addend: 0x0, symName: __ZNSt3__118__unwrap_iter_implINS_16reverse_iteratorIPN6tokens5tokenEEELb0EE8__unwrapB8ue170006ES5_, symObjAddr: 0x7B10, symBinAddr: 0x100013E48, symSize: 0x274 }
  - { offsetInCU: 0x88D5, offset: 0x24A22, size: 0x8, addend: 0x0, symName: __ZNSt3__119__unwrap_range_implINS_16reverse_iteratorIPN6tokens5tokenEEES5_E8__rewrapB8ue170006ES5_S5_, symObjAddr: 0x7D84, symBinAddr: 0x1000140BC, symSize: 0x3D4 }
  - { offsetInCU: 0x890E, offset: 0x24A5B, size: 0x8, addend: 0x0, symName: __ZNSt3__118__unwrap_iter_implINS_16reverse_iteratorIPN6tokens5tokenEEELb0EE8__rewrapB8ue170006ES5_S5_, symObjAddr: 0x8158, symBinAddr: 0x100014490, symSize: 0x2E0 }
  - { offsetInCU: 0x8944, offset: 0x24A91, size: 0x8, addend: 0x0, symName: __ZNSt3__116reverse_iteratorIPN6tokens5tokenEEC2B8ue170006ES3_, symObjAddr: 0x8438, symBinAddr: 0x100014770, symSize: 0xB8 }
  - { offsetInCU: 0x897C, offset: 0x24AC9, size: 0x8, addend: 0x0, symName: __ZNSt3__114__split_bufferIN6tokens5tokenERNS_9allocatorIS2_EEED2Ev, symObjAddr: 0x84F0, symBinAddr: 0x100014828, symSize: 0x104 }
  - { offsetInCU: 0x89A8, offset: 0x24AF5, size: 0x8, addend: 0x0, symName: __ZNSt3__114__split_bufferIN6tokens5tokenERNS_9allocatorIS2_EEE5clearB8ue170006Ev, symObjAddr: 0x85F4, symBinAddr: 0x10001492C, symSize: 0x68 }
  - { offsetInCU: 0x89CE, offset: 0x24B1B, size: 0x8, addend: 0x0, symName: __ZNKSt3__114__split_bufferIN6tokens5tokenERNS_9allocatorIS2_EEE8capacityB8ue170006Ev, symObjAddr: 0x8690, symBinAddr: 0x100014994, symSize: 0xBC }
  - { offsetInCU: 0x89F4, offset: 0x24B41, size: 0x8, addend: 0x0, symName: __ZNSt3__114__split_bufferIN6tokens5tokenERNS_9allocatorIS2_EEE17__destruct_at_endB8ue170006EPS2_, symObjAddr: 0x874C, symBinAddr: 0x100014A50, symSize: 0x2C }
  - { offsetInCU: 0x8A27, offset: 0x24B74, size: 0x8, addend: 0x0, symName: __ZNSt3__114__split_bufferIN6tokens5tokenERNS_9allocatorIS2_EEE17__destruct_at_endB8ue170006EPS2_NS_17integral_constantIbLb0EEE, symObjAddr: 0x8778, symBinAddr: 0x100014A7C, symSize: 0x10C }
  - { offsetInCU: 0x8A69, offset: 0x24BB6, size: 0x8, addend: 0x0, symName: __ZNKSt3__114__split_bufferIN6tokens5tokenERNS_9allocatorIS2_EEE9__end_capB8ue170006Ev, symObjAddr: 0x8A34, symBinAddr: 0x100014B88, symSize: 0x28 }
  - { offsetInCU: 0x8A8F, offset: 0x24BDC, size: 0x8, addend: 0x0, symName: __ZNKSt3__117__compressed_pairIPN6tokens5tokenERNS_9allocatorIS2_EEE5firstB8ue170006Ev, symObjAddr: 0x8A5C, symBinAddr: 0x100014BB0, symSize: 0x24 }
  - { offsetInCU: 0x8AB4, offset: 0x24C01, size: 0x8, addend: 0x0, symName: __Z8__istypeim, symObjAddr: 0x8A80, symBinAddr: 0x100014BD4, symSize: 0xFC }
  - { offsetInCU: 0x8AEE, offset: 0x24C3B, size: 0x8, addend: 0x0, symName: __Z7isasciii, symObjAddr: 0x8B7C, symBinAddr: 0x100014CD0, symSize: 0x24 }
  - { offsetInCU: 0x8B1B, offset: 0x24C68, size: 0x8, addend: 0x0, symName: __ZNKSt3__112basic_stringIcNS_11char_traitsIcEENS_9allocatorIcEEE6substrB8ue170006Emm, symObjAddr: 0x8E8C, symBinAddr: 0x100014FE0, symSize: 0x210 }
  - { offsetInCU: 0x8B67, offset: 0x24CB4, size: 0x8, addend: 0x0, symName: __ZNSt3__18optionalIN6tokens10token_typeEEC1B8ue170006IS2_Li0EEEOT_, symObjAddr: 0x909C, symBinAddr: 0x1000151F0, symSize: 0x34 }
  - { offsetInCU: 0x8BAF, offset: 0x24CFC, size: 0x8, addend: 0x0, symName: __ZNSt3__18optionalIN6tokens10token_typeEEC1B8ue170006ENS_9nullopt_tE, symObjAddr: 0x90D0, symBinAddr: 0x100015224, symSize: 0x2C }
  - { offsetInCU: 0x8BE5, offset: 0x24D32, size: 0x8, addend: 0x0, symName: __ZNKSt3__112basic_stringIcNS_11char_traitsIcEENS_9allocatorIcEEEcvNS_17basic_string_viewIcS2_EEB8ue170006Ev, symObjAddr: 0x9444, symBinAddr: 0x100015598, symSize: 0x228 }
  - { offsetInCU: 0x8C0C, offset: 0x24D59, size: 0x8, addend: 0x0, symName: __ZNSt3__117basic_string_viewIcNS_11char_traitsIcEEEC1B8ue170006EPKc, symObjAddr: 0x966C, symBinAddr: 0x1000157C0, symSize: 0x34 }
  - { offsetInCU: 0x8C45, offset: 0x24D92, size: 0x8, addend: 0x0, symName: __ZNKSt3__117basic_string_viewIcNS_11char_traitsIcEEE4sizeB8ue170006Ev, symObjAddr: 0x96A0, symBinAddr: 0x1000157F4, symSize: 0x64 }
  - { offsetInCU: 0x8C6B, offset: 0x24DB8, size: 0x8, addend: 0x0, symName: __ZNKSt3__117basic_string_viewIcNS_11char_traitsIcEEE7compareES3_, symObjAddr: 0x9704, symBinAddr: 0x100015858, symSize: 0x434 }
  - { offsetInCU: 0x8CC5, offset: 0x24E12, size: 0x8, addend: 0x0, symName: __ZNSt3__111char_traitsIcE7compareB8ue170006EPKcS3_m, symObjAddr: 0x9B38, symBinAddr: 0x100015C8C, symSize: 0x34 }
  - { offsetInCU: 0x8D04, offset: 0x24E51, size: 0x8, addend: 0x0, symName: __ZNKSt3__117basic_string_viewIcNS_11char_traitsIcEEE4dataB8ue170006Ev, symObjAddr: 0x9B6C, symBinAddr: 0x100015CC0, symSize: 0x60 }
  - { offsetInCU: 0x8D2A, offset: 0x24E77, size: 0x8, addend: 0x0, symName: __ZNSt3__117basic_string_viewIcNS_11char_traitsIcEEEC1B8ue170006EPKcm, symObjAddr: 0x9C48, symBinAddr: 0x100015D20, symSize: 0x3C }
  - { offsetInCU: 0x8D72, offset: 0x24EBF, size: 0x8, addend: 0x0, symName: __ZNSt3__117basic_string_viewIcNS_11char_traitsIcEEEC2B8ue170006EPKcm, symObjAddr: 0x9F80, symBinAddr: 0x100015D5C, symSize: 0xBC }
  - { offsetInCU: 0x8DBA, offset: 0x24F07, size: 0x8, addend: 0x0, symName: __ZNSt3__117basic_string_viewIcNS_11char_traitsIcEEEC2B8ue170006EPKc, symObjAddr: 0xA03C, symBinAddr: 0x100015E18, symSize: 0xC4 }
  - { offsetInCU: 0x8DF3, offset: 0x24F40, size: 0x8, addend: 0x0, symName: __ZNSt3__19allocatorIcEC1B8ue170006Ev, symObjAddr: 0xA188, symBinAddr: 0x100015F00, symSize: 0x2C }
  - { offsetInCU: 0x8E1D, offset: 0x24F6A, size: 0x8, addend: 0x0, symName: __ZNSt3__18optionalIN6tokens10token_typeEEC2B8ue170006IS2_Li0EEEOT_, symObjAddr: 0xA1F4, symBinAddr: 0x100015F2C, symSize: 0x34 }
  - { offsetInCU: 0x8E6A, offset: 0x24FB7, size: 0x8, addend: 0x0, symName: __ZNSt3__127__optional_move_assign_baseIN6tokens10token_typeELb1EECI2NS_24__optional_destruct_baseIS2_Lb1EEEIJS2_EEENS_10in_place_tEDpOT_, symObjAddr: 0xA228, symBinAddr: 0x100015F60, symSize: 0x34 }
  - { offsetInCU: 0x8EAE, offset: 0x24FFB, size: 0x8, addend: 0x0, symName: __ZNSt3__127__optional_copy_assign_baseIN6tokens10token_typeELb1EECI2NS_24__optional_destruct_baseIS2_Lb1EEEIJS2_EEENS_10in_place_tEDpOT_, symObjAddr: 0xA25C, symBinAddr: 0x100015F94, symSize: 0x34 }
  - { offsetInCU: 0x8EF2, offset: 0x2503F, size: 0x8, addend: 0x0, symName: __ZNSt3__120__optional_move_baseIN6tokens10token_typeELb1EECI2NS_24__optional_destruct_baseIS2_Lb1EEEIJS2_EEENS_10in_place_tEDpOT_, symObjAddr: 0xA290, symBinAddr: 0x100015FC8, symSize: 0x34 }
  - { offsetInCU: 0x8F36, offset: 0x25083, size: 0x8, addend: 0x0, symName: __ZNSt3__120__optional_copy_baseIN6tokens10token_typeELb1EECI2NS_24__optional_destruct_baseIS2_Lb1EEEIJS2_EEENS_10in_place_tEDpOT_, symObjAddr: 0xA2C4, symBinAddr: 0x100015FFC, symSize: 0x34 }
  - { offsetInCU: 0x8F75, offset: 0x250C2, size: 0x8, addend: 0x0, symName: __ZNSt3__123__optional_storage_baseIN6tokens10token_typeELb0EECI2NS_24__optional_destruct_baseIS2_Lb1EEEIJS2_EEENS_10in_place_tEDpOT_, symObjAddr: 0xA2F8, symBinAddr: 0x100016030, symSize: 0x34 }
  - { offsetInCU: 0x8FB4, offset: 0x25101, size: 0x8, addend: 0x0, symName: __ZNSt3__124__optional_destruct_baseIN6tokens10token_typeELb1EEC2B8ue170006IJS2_EEENS_10in_place_tEDpOT_, symObjAddr: 0xA32C, symBinAddr: 0x100016064, symSize: 0x160 }
  - { offsetInCU: 0x9004, offset: 0x25151, size: 0x8, addend: 0x0, symName: __ZNSt3__18optionalIN6tokens10token_typeEEC2B8ue170006ENS_9nullopt_tE, symObjAddr: 0xA48C, symBinAddr: 0x1000161C4, symSize: 0x2C }
  - { offsetInCU: 0x903A, offset: 0x25187, size: 0x8, addend: 0x0, symName: __ZNSt3__127__optional_move_assign_baseIN6tokens10token_typeELb1EEC2Ev, symObjAddr: 0xA4B8, symBinAddr: 0x1000161F0, symSize: 0x2C }
  - { offsetInCU: 0x9067, offset: 0x251B4, size: 0x8, addend: 0x0, symName: __ZNSt3__127__optional_copy_assign_baseIN6tokens10token_typeELb1EEC2Ev, symObjAddr: 0xA4E4, symBinAddr: 0x10001621C, symSize: 0x2C }
  - { offsetInCU: 0x9094, offset: 0x251E1, size: 0x8, addend: 0x0, symName: __ZNSt3__120__optional_move_baseIN6tokens10token_typeELb1EEC2Ev, symObjAddr: 0xA510, symBinAddr: 0x100016248, symSize: 0x2C }
  - { offsetInCU: 0x90C1, offset: 0x2520E, size: 0x8, addend: 0x0, symName: __ZNSt3__120__optional_copy_baseIN6tokens10token_typeELb1EEC2Ev, symObjAddr: 0xA53C, symBinAddr: 0x100016274, symSize: 0x2C }
  - { offsetInCU: 0x90EE, offset: 0x2523B, size: 0x8, addend: 0x0, symName: __ZNSt3__123__optional_storage_baseIN6tokens10token_typeELb0EEC2Ev, symObjAddr: 0xA568, symBinAddr: 0x1000162A0, symSize: 0x2C }
  - { offsetInCU: 0x911B, offset: 0x25268, size: 0x8, addend: 0x0, symName: __ZNSt3__124__optional_destruct_baseIN6tokens10token_typeELb1EEC2B8ue170006Ev, symObjAddr: 0xA594, symBinAddr: 0x1000162CC, symSize: 0xE4 }
  - { offsetInCU: 0x9145, offset: 0x25292, size: 0x8, addend: 0x0, symName: __ZNSt3__16vectorIN6tokens5tokenENS_9allocatorIS2_EEE17__destruct_at_endB8ue170006EPS2_, symObjAddr: 0xA678, symBinAddr: 0x1000163B0, symSize: 0x4C }
  - { offsetInCU: 0x9189, offset: 0x252D6, size: 0x8, addend: 0x0, symName: __ZNRSt3__123__optional_storage_baseIN6tokens10token_typeELb0EE5__getB8ue170006Ev, symObjAddr: 0xA824, symBinAddr: 0x100016448, symSize: 0x14 }
  - { offsetInCU: 0x91BE, offset: 0x2530B, size: 0x8, addend: 0x0, symName: __ZNSt19bad_optional_accessC1Ev, symObjAddr: 0xA838, symBinAddr: 0x10001645C, symSize: 0x2C }
  - { offsetInCU: 0x91EA, offset: 0x25337, size: 0x8, addend: 0x0, symName: __ZNSt19bad_optional_accessC2Ev, symObjAddr: 0xA864, symBinAddr: 0x100016488, symSize: 0x84 }
  - { offsetInCU: 0x9216, offset: 0x25363, size: 0x8, addend: 0x0, symName: __ZNSt9exceptionC2B8ue170006Ev, symObjAddr: 0xA8E8, symBinAddr: 0x10001650C, symSize: 0x74 }
  - { offsetInCU: 0x9240, offset: 0x2538D, size: 0x8, addend: 0x0, symName: __ZNKSt3__112basic_stringIcNS_11char_traitsIcEENS_9allocatorIcEEE6lengthB8ue170006Ev, symObjAddr: 0xA95C, symBinAddr: 0x100016580, symSize: 0x24 }
  - { offsetInCU: 0x3B, offset: 0x2549D, size: 0x8, addend: 0x0, symName: _.str, symObjAddr: 0x1C6A0, symBinAddr: 0x100030800, symSize: 0x0 }
  - { offsetInCU: 0x6B, offset: 0x254CD, size: 0x8, addend: 0x0, symName: _.str.1, symObjAddr: 0x1C700, symBinAddr: 0x100030860, symSize: 0x0 }
  - { offsetInCU: 0x88, offset: 0x254EA, size: 0x8, addend: 0x0, symName: _.str.2, symObjAddr: 0x1C720, symBinAddr: 0x100030880, symSize: 0x0 }
  - { offsetInCU: 0xA5, offset: 0x25507, size: 0x8, addend: 0x0, symName: _.str.3, symObjAddr: 0x1C740, symBinAddr: 0x1000308A0, symSize: 0x0 }
  - { offsetInCU: 0xC2, offset: 0x25524, size: 0x8, addend: 0x0, symName: _.str.4, symObjAddr: 0x1C780, symBinAddr: 0x1000308E0, symSize: 0x0 }
  - { offsetInCU: 0xE0, offset: 0x25542, size: 0x8, addend: 0x0, symName: _.str.5, symObjAddr: 0x1C7A0, symBinAddr: 0x100030900, symSize: 0x0 }
  - { offsetInCU: 0x4291, offset: 0x296F3, size: 0x8, addend: 0x0, symName: __ZNSt3__17advanceB8ue170006IPN3ast11program_errEllvEEvRT_T0_, symObjAddr: 0x7828, symBinAddr: 0x10001CE34, symSize: 0x38 }
  - { offsetInCU: 0x4512, offset: 0x29974, size: 0x8, addend: 0x0, symName: __ZNSt3__17advanceB8ue170006INS_16reverse_iteratorIPN3ast11program_errEEEllvEEvRT_T0_, symObjAddr: 0x8B1C, symBinAddr: 0x10001E0B8, symSize: 0x38 }
  - { offsetInCU: 0x7761, offset: 0x2CBC3, size: 0x8, addend: 0x0, symName: __ZNSt3__120__throw_out_of_rangeB8ue170006EPKc, symObjAddr: 0x2A80, symBinAddr: 0x100018FE0, symSize: 0x68 }
  - { offsetInCU: 0x77B3, offset: 0x2CC15, size: 0x8, addend: 0x0, symName: __ZNSt3__112construct_atB8ue170006IN3ast11program_errEJS2_EPS2_EEPT_S5_DpOT0_, symObjAddr: 0x403C, symBinAddr: 0x10001A0FC, symSize: 0x3C }
  - { offsetInCU: 0x7825, offset: 0x2CC87, size: 0x8, addend: 0x0, symName: __ZNSt3__119__allocate_at_leastB8ue170006INS_9allocatorIN3ast11program_errEEEEENS_19__allocation_resultINS_16allocator_traitsIT_E7pointerEEERS7_m, symObjAddr: 0x6078, symBinAddr: 0x10001B858, symSize: 0x28C }
  - { offsetInCU: 0x786A, offset: 0x2CCCC, size: 0x8, addend: 0x0, symName: __ZNSt3__142__uninitialized_allocator_move_if_noexceptB8ue170006INS_9allocatorIN3ast11program_errEEENS_16reverse_iteratorIPS3_EES7_S7_EET2_RT_T0_T1_S8_, symObjAddr: 0x674C, symBinAddr: 0x10001BD58, symSize: 0x544 }
  - { offsetInCU: 0x791F, offset: 0x2CD81, size: 0x8, addend: 0x0, symName: __ZNSt3__14swapB8ue170006IPN3ast11program_errEEENS_9enable_ifIXaasr21is_move_constructibleIT_EE5valuesr18is_move_assignableIS5_EE5valueEvE4typeERS5_S8_, symObjAddr: 0x6D28, symBinAddr: 0x10001C334, symSize: 0x134 }
  - { offsetInCU: 0x7971, offset: 0x2CDD3, size: 0x8, addend: 0x0, symName: __ZNSt3__122__make_exception_guardB8ue170006INS_29_AllocatorDestroyRangeReverseINS_9allocatorIN3ast11program_errEEENS_16reverse_iteratorIPS4_EEEEEENS_28__exception_guard_exceptionsIT_EESB_, symObjAddr: 0x6F1C, symBinAddr: 0x10001C528, symSize: 0x1F8 }
  - { offsetInCU: 0x79A8, offset: 0x2CE0A, size: 0x8, addend: 0x0, symName: __ZNSt3__1neB8ue170006IPN3ast11program_errES3_EEbRKNS_16reverse_iteratorIT_EERKNS4_IT0_EE, symObjAddr: 0x7158, symBinAddr: 0x10001C764, symSize: 0x48 }
  - { offsetInCU: 0x79F4, offset: 0x2CE56, size: 0x8, addend: 0x0, symName: __ZNSt3__112__to_addressB8ue170006INS_16reverse_iteratorIPN3ast11program_errEEEvEEu7__decayIDTclsr19__to_address_helperIT_EE6__callclsr3stdE7declvalIRKS6_EEEEES8_, symObjAddr: 0x71A0, symBinAddr: 0x10001C7AC, symSize: 0x24 }
  - { offsetInCU: 0x7A54, offset: 0x2CEB6, size: 0x8, addend: 0x0, symName: __ZNSt3__14prevB8ue170006IPN3ast11program_errEEENS_9enable_ifIXsr29__has_input_iterator_categoryIT_EE5valueES5_E4typeES5_NS_15iterator_traitsIS5_E15difference_typeE, symObjAddr: 0x75E8, symBinAddr: 0x10001CBF4, symSize: 0x240 }
  - { offsetInCU: 0x7A9C, offset: 0x2CEFE, size: 0x8, addend: 0x0, symName: __ZNSt3__121__convert_to_integralB8ue170006El, symObjAddr: 0x7860, symBinAddr: 0x10001CE6C, symSize: 0x14 }
  - { offsetInCU: 0x7AC8, offset: 0x2CF2A, size: 0x8, addend: 0x0, symName: __ZNSt3__19__advanceB8ue170006IPN3ast11program_errEEEvRT_NS_15iterator_traitsIS4_E15difference_typeENS_26random_access_iterator_tagE, symObjAddr: 0x7874, symBinAddr: 0x10001CE80, symSize: 0x78 }
  - { offsetInCU: 0x7B12, offset: 0x2CF74, size: 0x8, addend: 0x0, symName: __ZNSt3__119__allocator_destroyB8ue170006INS_9allocatorIN3ast11program_errEEENS_16reverse_iteratorINS5_IPS3_EEEES8_EEvRT_T0_T1_, symObjAddr: 0x7D50, symBinAddr: 0x10001D35C, symSize: 0x70 }
  - { offsetInCU: 0x7B77, offset: 0x2CFD9, size: 0x8, addend: 0x0, symName: __ZNSt3__1neB8ue170006INS_16reverse_iteratorIPN3ast11program_errEEES5_EEbRKNS1_IT_EERKNS1_IT0_EE, symObjAddr: 0x8008, symBinAddr: 0x10001D614, symSize: 0x2CC }
  - { offsetInCU: 0x7BC5, offset: 0x2D027, size: 0x8, addend: 0x0, symName: __ZNSt3__112__to_addressB8ue170006INS_16reverse_iteratorINS1_IPN3ast11program_errEEEEEvEEu7__decayIDTclsr19__to_address_helperIT_EE6__callclsr3stdE7declvalIRKS7_EEEEES9_, symObjAddr: 0x82FC, symBinAddr: 0x10001D8E0, symSize: 0x24 }
  - { offsetInCU: 0x7C25, offset: 0x2D087, size: 0x8, addend: 0x0, symName: __ZNSt3__14prevB8ue170006INS_16reverse_iteratorIPN3ast11program_errEEEEENS_9enable_ifIXsr29__has_input_iterator_categoryIT_EE5valueES7_E4typeES7_NS_15iterator_traitsIS7_E15difference_typeE, symObjAddr: 0x8888, symBinAddr: 0x10001DE24, symSize: 0x294 }
  - { offsetInCU: 0x7C6D, offset: 0x2D0CF, size: 0x8, addend: 0x0, symName: __ZNSt3__19__advanceB8ue170006INS_16reverse_iteratorIPN3ast11program_errEEEEEvRT_NS_15iterator_traitsIS6_E15difference_typeENS_26random_access_iterator_tagE, symObjAddr: 0x8B54, symBinAddr: 0x10001E0F0, symSize: 0x2C }
  - { offsetInCU: 0x7CDE, offset: 0x2D140, size: 0x8, addend: 0x0, symName: __ZNSt3__112construct_atB8ue170006IN11expressions12expr_literalEJRKS2_EPS2_EEPT_S7_DpOT0_, symObjAddr: 0xA694, symBinAddr: 0x10001F448, symSize: 0x40 }
  - { offsetInCU: 0x7D50, offset: 0x2D1B2, size: 0x8, addend: 0x0, symName: __ZNSt3__119__allocate_at_leastB8ue170006INS_9allocatorIN11expressions12expr_literalEEEEENS_19__allocation_resultINS_16allocator_traitsIT_E7pointerEEERS7_m, symObjAddr: 0xBCAC, symBinAddr: 0x100020A28, symSize: 0x28C }
  - { offsetInCU: 0x7D95, offset: 0x2D1F7, size: 0x8, addend: 0x0, symName: __ZNSt3__142__uninitialized_allocator_move_if_noexceptB8ue170006INS_9allocatorIN11expressions12expr_literalEEENS_16reverse_iteratorIPS3_EES7_S3_vEET1_RT_T0_SB_S8_, symObjAddr: 0xC278, symBinAddr: 0x100020F28, symSize: 0x4A8 }
  - { offsetInCU: 0x7E20, offset: 0x2D282, size: 0x8, addend: 0x0, symName: __ZNSt3__14swapB8ue170006IPN11expressions12expr_literalEEENS_9enable_ifIXaasr21is_move_constructibleIT_EE5valuesr18is_move_assignableIS5_EE5valueEvE4typeERS5_S8_, symObjAddr: 0xC7B8, symBinAddr: 0x100021468, symSize: 0x134 }
  - { offsetInCU: 0x7E72, offset: 0x2D2D4, size: 0x8, addend: 0x0, symName: __ZNSt3__14moveB8ue170006INS_16reverse_iteratorIPN11expressions12expr_literalEEES5_EET0_T_S7_S6_, symObjAddr: 0xC9AC, symBinAddr: 0x10002165C, symSize: 0x4B0 }
  - { offsetInCU: 0x7ED9, offset: 0x2D33B, size: 0x8, addend: 0x0, symName: __ZNSt3__16__moveB8ue170006INS_17_ClassicAlgPolicyENS_16reverse_iteratorIPN11expressions12expr_literalEEES6_S6_EENS_4pairIT0_T2_EES8_T1_S9_, symObjAddr: 0xCE5C, symBinAddr: 0x100021B0C, symSize: 0x424 }
  - { offsetInCU: 0x7F51, offset: 0x2D3B3, size: 0x8, addend: 0x0, symName: __ZNSt3__123__dispatch_copy_or_moveB8ue170006INS_17_ClassicAlgPolicyENS_11__move_loopIS1_EENS_14__move_trivialENS_16reverse_iteratorIPN11expressions12expr_literalEEES9_S9_EENS_4pairIT2_T4_EESB_T3_SC_, symObjAddr: 0xD280, symBinAddr: 0x100021F30, symSize: 0x424 }
  - { offsetInCU: 0x7FDB, offset: 0x2D43D, size: 0x8, addend: 0x0, symName: __ZNSt3__121__unwrap_and_dispatchB8ue170006INS_10__overloadINS_11__move_loopINS_17_ClassicAlgPolicyEEENS_14__move_trivialEEENS_16reverse_iteratorIPN11expressions12expr_literalEEESB_SB_Li0EEENS_4pairIT0_T2_EESD_T1_SE_, symObjAddr: 0xD6A4, symBinAddr: 0x100022354, symSize: 0x880 }
  - { offsetInCU: 0x8081, offset: 0x2D4E3, size: 0x8, addend: 0x0, symName: __ZNSt3__114__unwrap_rangeB8ue170006INS_16reverse_iteratorIPN11expressions12expr_literalEEES5_EEDaT_T0_, symObjAddr: 0xDF24, symBinAddr: 0x100022BD4, symSize: 0x35C }
  - { offsetInCU: 0x823B, offset: 0x2D69D, size: 0x8, addend: 0x0, symName: __ZNSt3__113__unwrap_iterB8ue170006INS_16reverse_iteratorIPN11expressions12expr_literalEEENS_18__unwrap_iter_implIS5_Lb0EEELi0EEEDTclsrT0_8__unwrapclsr3stdE7declvalIT_EEEES9_, symObjAddr: 0xE5C4, symBinAddr: 0x100023274, symSize: 0x2EC }
  - { offsetInCU: 0x8283, offset: 0x2D6E5, size: 0x8, addend: 0x0, symName: __ZNSt3__19make_pairB8ue170006INS_16reverse_iteratorIPN11expressions12expr_literalEEES5_EENS_4pairINS_18__unwrap_ref_decayIT_E4typeENS7_IT0_E4typeEEEOS8_OSB_, symObjAddr: 0xE8B0, symBinAddr: 0x100023560, symSize: 0x38 }
  - { offsetInCU: 0x82D2, offset: 0x2D734, size: 0x8, addend: 0x0, symName: __ZNSt3__114__rewrap_rangeB8ue170006INS_16reverse_iteratorIPN11expressions12expr_literalEEES5_S5_EET0_S6_T1_, symObjAddr: 0xE8E8, symBinAddr: 0x100023598, symSize: 0x3D4 }
  - { offsetInCU: 0x832F, offset: 0x2D791, size: 0x8, addend: 0x0, symName: __ZNSt3__113__rewrap_iterB8ue170006INS_16reverse_iteratorIPN11expressions12expr_literalEEES5_NS_18__unwrap_iter_implIS5_Lb0EEEEET_S8_T0_, symObjAddr: 0xECBC, symBinAddr: 0x10002396C, symSize: 0x3E8 }
  - { offsetInCU: 0x83DC, offset: 0x2D83E, size: 0x8, addend: 0x0, symName: __ZNSt3__1neB8ue170006IPN11expressions12expr_literalES3_EEbRKNS_16reverse_iteratorIT_EERKNS4_IT0_EE, symObjAddr: 0xF57C, symBinAddr: 0x10002422C, symSize: 0x48 }
  - { offsetInCU: 0x8535, offset: 0x2D997, size: 0x8, addend: 0x0, symName: __ZNSt3__112construct_atB8ue170006IN10statements4stmtEJS2_EPS2_EEPT_S5_DpOT0_, symObjAddr: 0x113D0, symBinAddr: 0x100025CE0, symSize: 0x40 }
  - { offsetInCU: 0x85A7, offset: 0x2DA09, size: 0x8, addend: 0x0, symName: __ZNSt3__119__allocate_at_leastB8ue170006INS_9allocatorIN10statements4stmtEEEEENS_19__allocation_resultINS_16allocator_traitsIT_E7pointerEEERS7_m, symObjAddr: 0x12A14, symBinAddr: 0x1000272EC, symSize: 0x28C }
  - { offsetInCU: 0x85EC, offset: 0x2DA4E, size: 0x8, addend: 0x0, symName: __ZNSt3__142__uninitialized_allocator_move_if_noexceptB8ue170006INS_9allocatorIN10statements4stmtEEENS_16reverse_iteratorIPS3_EES7_S3_vEET1_RT_T0_SB_S8_, symObjAddr: 0x13000, symBinAddr: 0x1000277F0, symSize: 0x4A8 }
  - { offsetInCU: 0x8677, offset: 0x2DAD9, size: 0x8, addend: 0x0, symName: __ZNSt3__14swapB8ue170006IPN10statements4stmtEEENS_9enable_ifIXaasr21is_move_constructibleIT_EE5valuesr18is_move_assignableIS5_EE5valueEvE4typeERS5_S8_, symObjAddr: 0x13540, symBinAddr: 0x100027D30, symSize: 0x134 }
  - { offsetInCU: 0x86C9, offset: 0x2DB2B, size: 0x8, addend: 0x0, symName: __ZNSt3__14moveB8ue170006INS_16reverse_iteratorIPN10statements4stmtEEES5_EET0_T_S7_S6_, symObjAddr: 0x13750, symBinAddr: 0x100027F40, symSize: 0x4B0 }
  - { offsetInCU: 0x8730, offset: 0x2DB92, size: 0x8, addend: 0x0, symName: __ZNSt3__16__moveB8ue170006INS_17_ClassicAlgPolicyENS_16reverse_iteratorIPN10statements4stmtEEES6_S6_EENS_4pairIT0_T2_EES8_T1_S9_, symObjAddr: 0x13C00, symBinAddr: 0x1000283F0, symSize: 0x424 }
  - { offsetInCU: 0x87A8, offset: 0x2DC0A, size: 0x8, addend: 0x0, symName: __ZNSt3__123__dispatch_copy_or_moveB8ue170006INS_17_ClassicAlgPolicyENS_11__move_loopIS1_EENS_14__move_trivialENS_16reverse_iteratorIPN10statements4stmtEEES9_S9_EENS_4pairIT2_T4_EESB_T3_SC_, symObjAddr: 0x14024, symBinAddr: 0x100028814, symSize: 0x424 }
  - { offsetInCU: 0x8832, offset: 0x2DC94, size: 0x8, addend: 0x0, symName: __ZNSt3__121__unwrap_and_dispatchB8ue170006INS_10__overloadINS_11__move_loopINS_17_ClassicAlgPolicyEEENS_14__move_trivialEEENS_16reverse_iteratorIPN10statements4stmtEEESB_SB_Li0EEENS_4pairIT0_T2_EESD_T1_SE_, symObjAddr: 0x14448, symBinAddr: 0x100028C38, symSize: 0x880 }
  - { offsetInCU: 0x88D8, offset: 0x2DD3A, size: 0x8, addend: 0x0, symName: __ZNSt3__114__unwrap_rangeB8ue170006INS_16reverse_iteratorIPN10statements4stmtEEES5_EEDaT_T0_, symObjAddr: 0x14CC8, symBinAddr: 0x1000294B8, symSize: 0x35C }
  - { offsetInCU: 0x8A01, offset: 0x2DE63, size: 0x8, addend: 0x0, symName: __ZNSt3__113__unwrap_iterB8ue170006INS_16reverse_iteratorIPN10statements4stmtEEENS_18__unwrap_iter_implIS5_Lb0EEELi0EEEDTclsrT0_8__unwrapclsr3stdE7declvalIT_EEEES9_, symObjAddr: 0x15368, symBinAddr: 0x100029B58, symSize: 0x2EC }
  - { offsetInCU: 0x8A49, offset: 0x2DEAB, size: 0x8, addend: 0x0, symName: __ZNSt3__19make_pairB8ue170006INS_16reverse_iteratorIPN10statements4stmtEEES5_EENS_4pairINS_18__unwrap_ref_decayIT_E4typeENS7_IT0_E4typeEEEOS8_OSB_, symObjAddr: 0x15654, symBinAddr: 0x100029E44, symSize: 0x38 }
  - { offsetInCU: 0x8A98, offset: 0x2DEFA, size: 0x8, addend: 0x0, symName: __ZNSt3__114__rewrap_rangeB8ue170006INS_16reverse_iteratorIPN10statements4stmtEEES5_S5_EET0_S6_T1_, symObjAddr: 0x1568C, symBinAddr: 0x100029E7C, symSize: 0x3D4 }
  - { offsetInCU: 0x8AF5, offset: 0x2DF57, size: 0x8, addend: 0x0, symName: __ZNSt3__113__rewrap_iterB8ue170006INS_16reverse_iteratorIPN10statements4stmtEEES5_NS_18__unwrap_iter_implIS5_Lb0EEEEET_S8_T0_, symObjAddr: 0x15A60, symBinAddr: 0x10002A250, symSize: 0x3E8 }
  - { offsetInCU: 0x8BA2, offset: 0x2E004, size: 0x8, addend: 0x0, symName: __ZNSt3__1neB8ue170006IPN10statements4stmtES3_EEbRKNS_16reverse_iteratorIT_EERKNS4_IT0_EE, symObjAddr: 0x16320, symBinAddr: 0x10002AB10, symSize: 0x48 }
  - { offsetInCU: 0x8C5B, offset: 0x2E0BD, size: 0x8, addend: 0x0, symName: __ZNSt3__1neB8ue170006IPN3ast11program_errEEEbRKNS_11__wrap_iterIT_EES8_, symObjAddr: 0x18694, symBinAddr: 0x10002CC5C, symSize: 0x34 }
  - { offsetInCU: 0x8C9E, offset: 0x2E100, size: 0x8, addend: 0x0, symName: __ZNSt3__1eqB8ue170006IPN3ast11program_errEEEbRKNS_11__wrap_iterIT_EES8_, symObjAddr: 0x1A8BC, symBinAddr: 0x10002CFF8, symSize: 0x48 }
  - { offsetInCU: 0x9088, offset: 0x2E4EA, size: 0x8, addend: 0x0, symName: _.str.6, symObjAddr: 0x1C7C0, symBinAddr: 0x100030920, symSize: 0x0 }
  - { offsetInCU: 0x90A5, offset: 0x2E507, size: 0x8, addend: 0x0, symName: _.str.7, symObjAddr: 0x1C800, symBinAddr: 0x100030960, symSize: 0x0 }
  - { offsetInCU: 0x90B6, offset: 0x2E518, size: 0x8, addend: 0x0, symName: _.str.8, symObjAddr: 0x1C820, symBinAddr: 0x100030980, symSize: 0x0 }
  - { offsetInCU: 0x944E, offset: 0x2E8B0, size: 0x8, addend: 0x0, symName: __ZN3ast10parse_treeEPN6tokens10token_iterE, symObjAddr: 0x2348, symBinAddr: 0x100018984, symSize: 0x100 }
  - { offsetInCU: 0x95F4, offset: 0x2EA56, size: 0x8, addend: 0x0, symName: __ZNSt3__16vectorIN3ast11program_errENS_9allocatorIS2_EEE26__swap_out_circular_bufferERNS_14__split_bufferIS2_RS4_EE, symObjAddr: 0x4B9C, symBinAddr: 0x10001A9C0, symSize: 0x56C }
  - { offsetInCU: 0x979C, offset: 0x2EBFE, size: 0x8, addend: 0x0, symName: __ZNSt3__16vectorIN11expressions12expr_literalENS_9allocatorIS2_EEE26__swap_out_circular_bufferERNS_14__split_bufferIS2_RS4_EE, symObjAddr: 0xAE14, symBinAddr: 0x10001FB90, symSize: 0x56C }
  - { offsetInCU: 0x9908, offset: 0x2ED6A, size: 0x8, addend: 0x0, symName: __ZNSt3__16vectorIN10statements4stmtENS_9allocatorIS2_EEE26__swap_out_circular_bufferERNS_14__split_bufferIS2_RS4_EE, symObjAddr: 0x11B6C, symBinAddr: 0x100026444, symSize: 0x56C }
  - { offsetInCU: 0xB8C1, offset: 0x30D23, size: 0x8, addend: 0x0, symName: __Z14try_match_nextPN6tokens10token_iterESt16initializer_listINS_10token_typeEE, symObjAddr: 0x0, symBinAddr: 0x10001663C, symSize: 0x5BC }
  - { offsetInCU: 0xB97E, offset: 0x30DE0, size: 0x8, addend: 0x0, symName: __ZNK6tokens10token_iter4peekEv, symObjAddr: 0x5BC, symBinAddr: 0x100016BF8, symSize: 0x3B0 }
  - { offsetInCU: 0xB9A5, offset: 0x30E07, size: 0x8, addend: 0x0, symName: __ZNKSt3__123__optional_storage_baseIPN6tokens5tokenELb0EE9has_valueB8ue170006Ev, symObjAddr: 0x96C, symBinAddr: 0x100016FA8, symSize: 0x8C }
  - { offsetInCU: 0xB9CB, offset: 0x30E2D, size: 0x8, addend: 0x0, symName: __ZNSt3__18optionalIPN6tokens5tokenEEC1B8ue170006ENS_9nullopt_tE, symObjAddr: 0x9F8, symBinAddr: 0x100017034, symSize: 0x2C }
  - { offsetInCU: 0xBA01, offset: 0x30E63, size: 0x8, addend: 0x0, symName: __ZNRSt3__18optionalIPN6tokens5tokenEE5valueB8ue170006Ev, symObjAddr: 0xA24, symBinAddr: 0x100017060, symSize: 0x40 }
  - { offsetInCU: 0xBA40, offset: 0x30EA2, size: 0x8, addend: 0x0, symName: __ZNKSt16initializer_listIN6tokens10token_typeEE5beginB8ue170006Ev, symObjAddr: 0xA64, symBinAddr: 0x1000170A0, symSize: 0x60 }
  - { offsetInCU: 0xBA66, offset: 0x30EC8, size: 0x8, addend: 0x0, symName: __ZNKSt16initializer_listIN6tokens10token_typeEE3endB8ue170006Ev, symObjAddr: 0xAC4, symBinAddr: 0x100017100, symSize: 0xA8 }
  - { offsetInCU: 0xBA91, offset: 0x30EF3, size: 0x8, addend: 0x0, symName: __ZNSt3__18optionalIPN6tokens5tokenEEC1B8ue170006IS3_Li0EEEOT_, symObjAddr: 0xB6C, symBinAddr: 0x1000171A8, symSize: 0x34 }
  - { offsetInCU: 0xBAD8, offset: 0x30F3A, size: 0x8, addend: 0x0, symName: __Z10parse_stmtPN3ast7programEPN6tokens10token_iterE, symObjAddr: 0xBA0, symBinAddr: 0x1000171DC, symSize: 0x670 }
  - { offsetInCU: 0xBB4E, offset: 0x30FB0, size: 0x8, addend: 0x0, symName: __ZN6tokens10token_iter7currentEv, symObjAddr: 0x1210, symBinAddr: 0x10001784C, symSize: 0x330 }
  - { offsetInCU: 0xBB75, offset: 0x30FD7, size: 0x8, addend: 0x0, symName: __ZNOSt3__18optionalIPN6tokens5tokenEE5valueB8ue170006Ev, symObjAddr: 0x1540, symBinAddr: 0x100017B7C, symSize: 0x40 }
  - { offsetInCU: 0xBB9B, offset: 0x30FFD, size: 0x8, addend: 0x0, symName: __ZN3ast7program7rep_errEPKcm, symObjAddr: 0x1580, symBinAddr: 0x100017BBC, symSize: 0x304 }
  - { offsetInCU: 0xBBE0, offset: 0x31042, size: 0x8, addend: 0x0, symName: __ZN11expressions21expressions_container16register_literalENS_17expr_literal_typeEPN6tokens5tokenEPKc, symObjAddr: 0x1884, symBinAddr: 0x100017EC0, symSize: 0x38C }
  - { offsetInCU: 0xBC67, offset: 0x310C9, size: 0x8, addend: 0x0, symName: __ZN3ast7program8add_stmtEN10statements9stmt_typeEN11expressions4exprEPKc, symObjAddr: 0x1C10, symBinAddr: 0x10001824C, symSize: 0x2E0 }
  - { offsetInCU: 0xBCBC, offset: 0x3111E, size: 0x8, addend: 0x0, symName: __ZN6tokens10token_iter7advanceEv, symObjAddr: 0x1EF0, symBinAddr: 0x10001852C, symSize: 0x68 }
  - { offsetInCU: 0xBCE1, offset: 0x31143, size: 0x8, addend: 0x0, symName: __Z11parse_tokenPN3ast7programEPN6tokens10token_iterE, symObjAddr: 0x1F58, symBinAddr: 0x100018594, symSize: 0x3D8 }
  - { offsetInCU: 0xBD2A, offset: 0x3118C, size: 0x8, addend: 0x0, symName: __ZN3ast7programC1Ev, symObjAddr: 0x2448, symBinAddr: 0x100018A84, symSize: 0x2C }
  - { offsetInCU: 0xBD56, offset: 0x311B8, size: 0x8, addend: 0x0, symName: __ZN6tokens10token_iter4doneEv, symObjAddr: 0x2474, symBinAddr: 0x100018AB0, symSize: 0xB4 }
  - { offsetInCU: 0xBD7C, offset: 0x311DE, size: 0x8, addend: 0x0, symName: __ZN3ast7program2okEv, symObjAddr: 0x2528, symBinAddr: 0x100018B64, symSize: 0x2C }
  - { offsetInCU: 0xBDA2, offset: 0x31204, size: 0x8, addend: 0x0, symName: __ZN3ast7program10print_errsEv, symObjAddr: 0x2554, symBinAddr: 0x100018B90, symSize: 0x38C }
  - { offsetInCU: 0xBE25, offset: 0x31287, size: 0x8, addend: 0x0, symName: __ZNSt3__16vectorIN6tokens5tokenENS_9allocatorIS2_EEE2atEm, symObjAddr: 0x29BC, symBinAddr: 0x100018F1C, symSize: 0xA4 }
  - { offsetInCU: 0xBE5C, offset: 0x312BE, size: 0x8, addend: 0x0, symName: __ZNKSt3__16vectorIN6tokens5tokenENS_9allocatorIS2_EEE20__throw_out_of_rangeB8ue170006Ev, symObjAddr: 0x2A60, symBinAddr: 0x100018FC0, symSize: 0x20 }
  - { offsetInCU: 0xBE82, offset: 0x312E4, size: 0x8, addend: 0x0, symName: __ZNSt12out_of_rangeC1B8ue170006EPKc, symObjAddr: 0x2AE8, symBinAddr: 0x100019048, symSize: 0x34 }
  - { offsetInCU: 0xBEBA, offset: 0x3131C, size: 0x8, addend: 0x0, symName: __ZNSt12out_of_rangeC2B8ue170006EPKc, symObjAddr: 0x2B1C, symBinAddr: 0x10001907C, symSize: 0x8C }
  - { offsetInCU: 0xBEF2, offset: 0x31354, size: 0x8, addend: 0x0, symName: __ZNSt3__18optionalIPN6tokens5tokenEEC2B8ue170006ENS_9nullopt_tE, symObjAddr: 0x2BA8, symBinAddr: 0x100019108, symSize: 0x2C }
  - { offsetInCU: 0xBF2D, offset: 0x3138F, size: 0x8, addend: 0x0, symName: __ZNSt3__127__optional_move_assign_baseIPN6tokens5tokenELb1EEC2Ev, symObjAddr: 0x2BD4, symBinAddr: 0x100019134, symSize: 0x2C }
  - { offsetInCU: 0xBF5F, offset: 0x313C1, size: 0x8, addend: 0x0, symName: __ZNSt3__127__optional_copy_assign_baseIPN6tokens5tokenELb1EEC2Ev, symObjAddr: 0x2C00, symBinAddr: 0x100019160, symSize: 0x2C }
  - { offsetInCU: 0xBF91, offset: 0x313F3, size: 0x8, addend: 0x0, symName: __ZNSt3__120__optional_move_baseIPN6tokens5tokenELb1EEC2Ev, symObjAddr: 0x2C2C, symBinAddr: 0x10001918C, symSize: 0x2C }
  - { offsetInCU: 0xBFC3, offset: 0x31425, size: 0x8, addend: 0x0, symName: __ZNSt3__120__optional_copy_baseIPN6tokens5tokenELb1EEC2Ev, symObjAddr: 0x2C58, symBinAddr: 0x1000191B8, symSize: 0x2C }
  - { offsetInCU: 0xBFF0, offset: 0x31452, size: 0x8, addend: 0x0, symName: __ZNSt3__123__optional_storage_baseIPN6tokens5tokenELb0EEC2Ev, symObjAddr: 0x2C84, symBinAddr: 0x1000191E4, symSize: 0x2C }
  - { offsetInCU: 0xC01D, offset: 0x3147F, size: 0x8, addend: 0x0, symName: __ZNSt3__124__optional_destruct_baseIPN6tokens5tokenELb1EEC2B8ue170006Ev, symObjAddr: 0x2CB0, symBinAddr: 0x100019210, symSize: 0xE4 }
  - { offsetInCU: 0xC047, offset: 0x314A9, size: 0x8, addend: 0x0, symName: __ZNRSt3__123__optional_storage_baseIPN6tokens5tokenELb0EE5__getB8ue170006Ev, symObjAddr: 0x2DE0, symBinAddr: 0x1000192F4, symSize: 0x14 }
  - { offsetInCU: 0xC06D, offset: 0x314CF, size: 0x8, addend: 0x0, symName: __ZNSt3__18optionalIPN6tokens5tokenEEC2B8ue170006IS3_Li0EEEOT_, symObjAddr: 0x2F18, symBinAddr: 0x100019308, symSize: 0x34 }
  - { offsetInCU: 0xC0B5, offset: 0x31517, size: 0x8, addend: 0x0, symName: __ZNSt3__127__optional_move_assign_baseIPN6tokens5tokenELb1EECI2NS_24__optional_destruct_baseIS3_Lb1EEEIJS3_EEENS_10in_place_tEDpOT_, symObjAddr: 0x2F4C, symBinAddr: 0x10001933C, symSize: 0x34 }
  - { offsetInCU: 0xC0F4, offset: 0x31556, size: 0x8, addend: 0x0, symName: __ZNSt3__127__optional_copy_assign_baseIPN6tokens5tokenELb1EECI2NS_24__optional_destruct_baseIS3_Lb1EEEIJS3_EEENS_10in_place_tEDpOT_, symObjAddr: 0x2F80, symBinAddr: 0x100019370, symSize: 0x34 }
  - { offsetInCU: 0xC133, offset: 0x31595, size: 0x8, addend: 0x0, symName: __ZNSt3__120__optional_move_baseIPN6tokens5tokenELb1EECI2NS_24__optional_destruct_baseIS3_Lb1EEEIJS3_EEENS_10in_place_tEDpOT_, symObjAddr: 0x2FB4, symBinAddr: 0x1000193A4, symSize: 0x34 }
  - { offsetInCU: 0xC172, offset: 0x315D4, size: 0x8, addend: 0x0, symName: __ZNSt3__120__optional_copy_baseIPN6tokens5tokenELb1EECI2NS_24__optional_destruct_baseIS3_Lb1EEEIJS3_EEENS_10in_place_tEDpOT_, symObjAddr: 0x2FE8, symBinAddr: 0x1000193D8, symSize: 0x34 }
  - { offsetInCU: 0xC1B1, offset: 0x31613, size: 0x8, addend: 0x0, symName: __ZNSt3__123__optional_storage_baseIPN6tokens5tokenELb0EECI2NS_24__optional_destruct_baseIS3_Lb1EEEIJS3_EEENS_10in_place_tEDpOT_, symObjAddr: 0x301C, symBinAddr: 0x10001940C, symSize: 0x34 }
  - { offsetInCU: 0xC1F0, offset: 0x31652, size: 0x8, addend: 0x0, symName: __ZNSt3__124__optional_destruct_baseIPN6tokens5tokenELb1EEC2B8ue170006IJS3_EEENS_10in_place_tEDpOT_, symObjAddr: 0x3050, symBinAddr: 0x100019440, symSize: 0x110 }
  - { offsetInCU: 0xC240, offset: 0x316A2, size: 0x8, addend: 0x0, symName: __ZNSt3__16vectorIN3ast11program_errENS_9allocatorIS2_EEE9push_backB8ue170006EOS2_, symObjAddr: 0x3160, symBinAddr: 0x100019550, symSize: 0xE0 }
  - { offsetInCU: 0xC281, offset: 0x316E3, size: 0x8, addend: 0x0, symName: __ZNSt3__16vectorIN3ast11program_errENS_9allocatorIS2_EEE9__end_capB8ue170006Ev, symObjAddr: 0x32A0, symBinAddr: 0x100019630, symSize: 0x28 }
  - { offsetInCU: 0xC2AC, offset: 0x3170E, size: 0x8, addend: 0x0, symName: __ZNSt3__16vectorIN3ast11program_errENS_9allocatorIS2_EEE22__construct_one_at_endB8ue170006IJS2_EEEvDpOT_, symObjAddr: 0x32C8, symBinAddr: 0x100019658, symSize: 0x36C }
  - { offsetInCU: 0xC301, offset: 0x31763, size: 0x8, addend: 0x0, symName: __ZNSt3__16vectorIN3ast11program_errENS_9allocatorIS2_EEE21__push_back_slow_pathIS2_EEvOT_, symObjAddr: 0x3634, symBinAddr: 0x1000199C4, symSize: 0x3C0 }
  - { offsetInCU: 0xC366, offset: 0x317C8, size: 0x8, addend: 0x0, symName: __ZNSt3__117__compressed_pairIPN3ast11program_errENS_9allocatorIS2_EEE5firstB8ue170006Ev, symObjAddr: 0x39F4, symBinAddr: 0x100019D84, symSize: 0x24 }
  - { offsetInCU: 0xC38C, offset: 0x317EE, size: 0x8, addend: 0x0, symName: __ZNSt3__122__compressed_pair_elemIPN3ast11program_errELi0ELb0EE5__getB8ue170006Ev, symObjAddr: 0x3A18, symBinAddr: 0x100019DA8, symSize: 0x14 }
  - { offsetInCU: 0xC3CB, offset: 0x3182D, size: 0x8, addend: 0x0, symName: __ZNSt3__16vectorIN3ast11program_errENS_9allocatorIS2_EEE21_ConstructTransactionC1B8ue170006ERS5_m, symObjAddr: 0x3A2C, symBinAddr: 0x100019DBC, symSize: 0x3C }
  - { offsetInCU: 0xC413, offset: 0x31875, size: 0x8, addend: 0x0, symName: __ZNSt3__116allocator_traitsINS_9allocatorIN3ast11program_errEEEE9constructB8ue170006IS3_JS3_EvvEEvRS4_PT_DpOT0_, symObjAddr: 0x3A68, symBinAddr: 0x100019DF8, symSize: 0x30 }
  - { offsetInCU: 0xC468, offset: 0x318CA, size: 0x8, addend: 0x0, symName: __ZNSt3__16vectorIN3ast11program_errENS_9allocatorIS2_EEE21_ConstructTransactionD1B8ue170006Ev, symObjAddr: 0x3AD4, symBinAddr: 0x100019E28, symSize: 0x2C }
  - { offsetInCU: 0xC492, offset: 0x318F4, size: 0x8, addend: 0x0, symName: __ZNSt3__16vectorIN3ast11program_errENS_9allocatorIS2_EEE21_ConstructTransactionC2B8ue170006ERS5_m, symObjAddr: 0x3B00, symBinAddr: 0x100019E54, symSize: 0x1D0 }
  - { offsetInCU: 0xC4DA, offset: 0x3193C, size: 0x8, addend: 0x0, symName: __ZNKSt3__16vectorIN3ast11program_errENS_9allocatorIS2_EEE19__annotate_increaseB8ue170006Em, symObjAddr: 0x3CD0, symBinAddr: 0x10001A024, symSize: 0xD8 }
  - { offsetInCU: 0xC50F, offset: 0x31971, size: 0x8, addend: 0x0, symName: __ZN3ast11program_errC1EOS0_, symObjAddr: 0x4078, symBinAddr: 0x10001A138, symSize: 0x34 }
  - { offsetInCU: 0xC544, offset: 0x319A6, size: 0x8, addend: 0x0, symName: __ZN3ast11program_errC2EOS0_, symObjAddr: 0x40AC, symBinAddr: 0x10001A16C, symSize: 0xC4 }
  - { offsetInCU: 0xC579, offset: 0x319DB, size: 0x8, addend: 0x0, symName: __ZNSt3__112basic_stringIcNS_11char_traitsIcEENS_9allocatorIcEEEC1B8ue170006EOS5_, symObjAddr: 0x4170, symBinAddr: 0x10001A230, symSize: 0x34 }
  - { offsetInCU: 0xC5B2, offset: 0x31A14, size: 0x8, addend: 0x0, symName: __ZNSt3__112basic_stringIcNS_11char_traitsIcEENS_9allocatorIcEEEC2B8ue170006EOS5_, symObjAddr: 0x41A4, symBinAddr: 0x10001A264, symSize: 0x54 }
  - { offsetInCU: 0xC5EB, offset: 0x31A4D, size: 0x8, addend: 0x0, symName: __ZNSt3__16vectorIN3ast11program_errENS_9allocatorIS2_EEE21_ConstructTransactionD2B8ue170006Ev, symObjAddr: 0x4494, symBinAddr: 0x10001A2B8, symSize: 0x278 }
  - { offsetInCU: 0xC615, offset: 0x31A77, size: 0x8, addend: 0x0, symName: __ZNKSt3__16vectorIN3ast11program_errENS_9allocatorIS2_EEE17__annotate_shrinkB8ue170006Em, symObjAddr: 0x470C, symBinAddr: 0x10001A530, symSize: 0xC8 }
  - { offsetInCU: 0xC64A, offset: 0x31AAC, size: 0x8, addend: 0x0, symName: __ZNKSt3__16vectorIN3ast11program_errENS_9allocatorIS2_EEE11__recommendB8ue170006Em, symObjAddr: 0x47D4, symBinAddr: 0x10001A5F8, symSize: 0x384 }
  - { offsetInCU: 0xC6A6, offset: 0x31B08, size: 0x8, addend: 0x0, symName: __ZNSt3__114__split_bufferIN3ast11program_errERNS_9allocatorIS2_EEEC1EmmS5_, symObjAddr: 0x4B58, symBinAddr: 0x10001A97C, symSize: 0x44 }
  - { offsetInCU: 0xC6FC, offset: 0x31B5E, size: 0x8, addend: 0x0, symName: __ZNSt3__114__split_bufferIN3ast11program_errERNS_9allocatorIS2_EEED1Ev, symObjAddr: 0x5108, symBinAddr: 0x10001AF2C, symSize: 0x2C }
  - { offsetInCU: 0xC728, offset: 0x31B8A, size: 0x8, addend: 0x0, symName: __ZNKSt3__16vectorIN3ast11program_errENS_9allocatorIS2_EEE8max_sizeEv, symObjAddr: 0x5134, symBinAddr: 0x10001AF58, symSize: 0x2FC }
  - { offsetInCU: 0xC751, offset: 0x31BB3, size: 0x8, addend: 0x0, symName: __ZNKSt3__16vectorIN3ast11program_errENS_9allocatorIS2_EEE20__throw_length_errorB8ue170006Ev, symObjAddr: 0x5430, symBinAddr: 0x10001B254, symSize: 0x20 }
  - { offsetInCU: 0xC781, offset: 0x31BE3, size: 0x8, addend: 0x0, symName: __ZNSt3__116allocator_traitsINS_9allocatorIN3ast11program_errEEEE8max_sizeB8ue170006IS4_vvEEmRKS4_, symObjAddr: 0x54A8, symBinAddr: 0x10001B274, symSize: 0x28 }
  - { offsetInCU: 0xC7AD, offset: 0x31C0F, size: 0x8, addend: 0x0, symName: __ZNKSt3__16vectorIN3ast11program_errENS_9allocatorIS2_EEE7__allocB8ue170006Ev, symObjAddr: 0x54D0, symBinAddr: 0x10001B29C, symSize: 0x28 }
  - { offsetInCU: 0xC7D3, offset: 0x31C35, size: 0x8, addend: 0x0, symName: __ZNKSt3__117__compressed_pairIPN3ast11program_errENS_9allocatorIS2_EEE6secondB8ue170006Ev, symObjAddr: 0x57CC, symBinAddr: 0x10001B2C4, symSize: 0x24 }
  - { offsetInCU: 0xC7F9, offset: 0x31C5B, size: 0x8, addend: 0x0, symName: __ZNKSt3__122__compressed_pair_elemINS_9allocatorIN3ast11program_errEEELi1ELb1EE5__getB8ue170006Ev, symObjAddr: 0x57F0, symBinAddr: 0x10001B2E8, symSize: 0x14 }
  - { offsetInCU: 0xC81F, offset: 0x31C81, size: 0x8, addend: 0x0, symName: __ZNSt3__114__split_bufferIN3ast11program_errERNS_9allocatorIS2_EEEC2EmmS5_, symObjAddr: 0x5B1C, symBinAddr: 0x10001B2FC, symSize: 0x520 }
  - { offsetInCU: 0xC89F, offset: 0x31D01, size: 0x8, addend: 0x0, symName: __ZNSt3__117__compressed_pairIPN3ast11program_errERNS_9allocatorIS2_EEEC1B8ue170006IDnS6_EEOT_OT0_, symObjAddr: 0x603C, symBinAddr: 0x10001B81C, symSize: 0x3C }
  - { offsetInCU: 0xC8F7, offset: 0x31D59, size: 0x8, addend: 0x0, symName: __ZNSt3__114__split_bufferIN3ast11program_errERNS_9allocatorIS2_EEE7__allocB8ue170006Ev, symObjAddr: 0x6304, symBinAddr: 0x10001BAE4, symSize: 0x28 }
  - { offsetInCU: 0xC91D, offset: 0x31D7F, size: 0x8, addend: 0x0, symName: __ZNSt3__114__split_bufferIN3ast11program_errERNS_9allocatorIS2_EEE9__end_capB8ue170006Ev, symObjAddr: 0x632C, symBinAddr: 0x10001BB0C, symSize: 0x28 }
  - { offsetInCU: 0xC943, offset: 0x31DA5, size: 0x8, addend: 0x0, symName: __ZNSt3__117__compressed_pairIPN3ast11program_errERNS_9allocatorIS2_EEEC2B8ue170006IDnS6_EEOT_OT0_, symObjAddr: 0x6354, symBinAddr: 0x10001BB34, symSize: 0x48 }
  - { offsetInCU: 0xC99B, offset: 0x31DFD, size: 0x8, addend: 0x0, symName: __ZNSt3__122__compressed_pair_elemIPN3ast11program_errELi0ELb0EEC2B8ue170006IDnvEEOT_, symObjAddr: 0x639C, symBinAddr: 0x10001BB7C, symSize: 0x64 }
  - { offsetInCU: 0xC9DD, offset: 0x31E3F, size: 0x8, addend: 0x0, symName: __ZNSt3__122__compressed_pair_elemIRNS_9allocatorIN3ast11program_errEEELi1ELb0EEC2B8ue170006IS5_vEEOT_, symObjAddr: 0x6400, symBinAddr: 0x10001BBE0, symSize: 0x70 }
  - { offsetInCU: 0xCA1F, offset: 0x31E81, size: 0x8, addend: 0x0, symName: __ZNSt3__19allocatorIN3ast11program_errEE8allocateB8ue170006Em, symObjAddr: 0x6470, symBinAddr: 0x10001BC50, symSize: 0x5C }
  - { offsetInCU: 0xCA53, offset: 0x31EB5, size: 0x8, addend: 0x0, symName: __ZNSt3__117__compressed_pairIPN3ast11program_errERNS_9allocatorIS2_EEE6secondB8ue170006Ev, symObjAddr: 0x65D4, symBinAddr: 0x10001BCAC, symSize: 0x28 }
  - { offsetInCU: 0xCA79, offset: 0x31EDB, size: 0x8, addend: 0x0, symName: __ZNSt3__122__compressed_pair_elemIRNS_9allocatorIN3ast11program_errEEELi1ELb0EE5__getB8ue170006Ev, symObjAddr: 0x65FC, symBinAddr: 0x10001BCD4, symSize: 0x60 }
  - { offsetInCU: 0xCA9F, offset: 0x31F01, size: 0x8, addend: 0x0, symName: __ZNSt3__117__compressed_pairIPN3ast11program_errERNS_9allocatorIS2_EEE5firstB8ue170006Ev, symObjAddr: 0x665C, symBinAddr: 0x10001BD34, symSize: 0x24 }
  - { offsetInCU: 0xCAC5, offset: 0x31F27, size: 0x8, addend: 0x0, symName: __ZNSt3__116reverse_iteratorIPN3ast11program_errEEC1B8ue170006ES3_, symObjAddr: 0x6C90, symBinAddr: 0x10001C29C, symSize: 0x34 }
  - { offsetInCU: 0xCAFD, offset: 0x31F5F, size: 0x8, addend: 0x0, symName: __ZNKSt3__116reverse_iteratorIPN3ast11program_errEE4baseB8ue170006Ev, symObjAddr: 0x6CC4, symBinAddr: 0x10001C2D0, symSize: 0x64 }
  - { offsetInCU: 0xCB23, offset: 0x31F85, size: 0x8, addend: 0x0, symName: __ZNKSt3__16vectorIN3ast11program_errENS_9allocatorIS2_EEE14__annotate_newB8ue170006Em, symObjAddr: 0x6E5C, symBinAddr: 0x10001C468, symSize: 0xC0 }
  - { offsetInCU: 0xCB58, offset: 0x31FBA, size: 0x8, addend: 0x0, symName: __ZNSt3__129_AllocatorDestroyRangeReverseINS_9allocatorIN3ast11program_errEEENS_16reverse_iteratorIPS3_EEEC1B8ue170006ERS4_RS7_SA_, symObjAddr: 0x7114, symBinAddr: 0x10001C720, symSize: 0x44 }
  - { offsetInCU: 0xCBAF, offset: 0x32011, size: 0x8, addend: 0x0, symName: __ZNKSt3__116reverse_iteratorIPN3ast11program_errEEdeB8ue170006Ev, symObjAddr: 0x71C4, symBinAddr: 0x10001C7D0, symSize: 0x74 }
  - { offsetInCU: 0xCBE4, offset: 0x32046, size: 0x8, addend: 0x0, symName: __ZNSt3__116reverse_iteratorIPN3ast11program_errEEppB8ue170006Ev, symObjAddr: 0x7238, symBinAddr: 0x10001C844, symSize: 0x6C }
  - { offsetInCU: 0xCC0A, offset: 0x3206C, size: 0x8, addend: 0x0, symName: __ZNSt3__128__exception_guard_exceptionsINS_29_AllocatorDestroyRangeReverseINS_9allocatorIN3ast11program_errEEENS_16reverse_iteratorIPS4_EEEEE10__completeB8ue170006Ev, symObjAddr: 0x72A4, symBinAddr: 0x10001C8B0, symSize: 0x8C }
  - { offsetInCU: 0xCC30, offset: 0x32092, size: 0x8, addend: 0x0, symName: __ZNSt3__128__exception_guard_exceptionsINS_29_AllocatorDestroyRangeReverseINS_9allocatorIN3ast11program_errEEENS_16reverse_iteratorIPS4_EEEEED1B8ue170006Ev, symObjAddr: 0x7330, symBinAddr: 0x10001C93C, symSize: 0x2C }
  - { offsetInCU: 0xCC5A, offset: 0x320BC, size: 0x8, addend: 0x0, symName: __ZNSt3__128__exception_guard_exceptionsINS_29_AllocatorDestroyRangeReverseINS_9allocatorIN3ast11program_errEEENS_16reverse_iteratorIPS4_EEEEEC1B8ue170006ES9_, symObjAddr: 0x735C, symBinAddr: 0x10001C968, symSize: 0x34 }
  - { offsetInCU: 0xCC93, offset: 0x320F5, size: 0x8, addend: 0x0, symName: __ZNSt3__128__exception_guard_exceptionsINS_29_AllocatorDestroyRangeReverseINS_9allocatorIN3ast11program_errEEENS_16reverse_iteratorIPS4_EEEEEC2B8ue170006ES9_, symObjAddr: 0x7390, symBinAddr: 0x10001C99C, symSize: 0xA4 }
  - { offsetInCU: 0xCCCC, offset: 0x3212E, size: 0x8, addend: 0x0, symName: __ZNSt3__129_AllocatorDestroyRangeReverseINS_9allocatorIN3ast11program_errEEENS_16reverse_iteratorIPS3_EEEC2B8ue170006ERS4_RS7_SA_, symObjAddr: 0x7434, symBinAddr: 0x10001CA40, symSize: 0x104 }
  - { offsetInCU: 0xCD28, offset: 0x3218A, size: 0x8, addend: 0x0, symName: __ZNSt3__119__to_address_helperINS_16reverse_iteratorIPN3ast11program_errEEEvE6__callB8ue170006ERKS5_, symObjAddr: 0x7538, symBinAddr: 0x10001CB44, symSize: 0x44 }
  - { offsetInCU: 0xCD4B, offset: 0x321AD, size: 0x8, addend: 0x0, symName: __ZNKSt3__116reverse_iteratorIPN3ast11program_errEEptB8ue170006Ev, symObjAddr: 0x757C, symBinAddr: 0x10001CB88, symSize: 0x6C }
  - { offsetInCU: 0xCD71, offset: 0x321D3, size: 0x8, addend: 0x0, symName: __ZNSt3__128__exception_guard_exceptionsINS_29_AllocatorDestroyRangeReverseINS_9allocatorIN3ast11program_errEEENS_16reverse_iteratorIPS4_EEEEED2B8ue170006Ev, symObjAddr: 0x78EC, symBinAddr: 0x10001CEF8, symSize: 0xBC }
  - { offsetInCU: 0xCD9B, offset: 0x321FD, size: 0x8, addend: 0x0, symName: __ZNKSt3__129_AllocatorDestroyRangeReverseINS_9allocatorIN3ast11program_errEEENS_16reverse_iteratorIPS3_EEEclB8ue170006Ev, symObjAddr: 0x79A8, symBinAddr: 0x10001CFB4, symSize: 0x3A8 }
  - { offsetInCU: 0xCDC2, offset: 0x32224, size: 0x8, addend: 0x0, symName: __ZNSt3__116reverse_iteratorINS0_IPN3ast11program_errEEEEC1B8ue170006ES4_, symObjAddr: 0x7DC0, symBinAddr: 0x10001D3CC, symSize: 0x248 }
  - { offsetInCU: 0xCDFF, offset: 0x32261, size: 0x8, addend: 0x0, symName: __ZNSt3__116reverse_iteratorINS0_IPN3ast11program_errEEEEppB8ue170006Ev, symObjAddr: 0x8320, symBinAddr: 0x10001D904, symSize: 0x30 }
  - { offsetInCU: 0xCE25, offset: 0x32287, size: 0x8, addend: 0x0, symName: __ZNKSt3__116reverse_iteratorINS0_IPN3ast11program_errEEEE4baseB8ue170006Ev, symObjAddr: 0x8350, symBinAddr: 0x10001D934, symSize: 0x20C }
  - { offsetInCU: 0xCE51, offset: 0x322B3, size: 0x8, addend: 0x0, symName: __ZNSt3__119__to_address_helperINS_16reverse_iteratorINS1_IPN3ast11program_errEEEEEvE6__callB8ue170006ERKS6_, symObjAddr: 0x85A4, symBinAddr: 0x10001DB40, symSize: 0x44 }
  - { offsetInCU: 0xCE74, offset: 0x322D6, size: 0x8, addend: 0x0, symName: __ZNKSt3__116reverse_iteratorINS0_IPN3ast11program_errEEEEptB8ue170006Ev, symObjAddr: 0x85E8, symBinAddr: 0x10001DB84, symSize: 0x2A0 }
  - { offsetInCU: 0xCE9B, offset: 0x322FD, size: 0x8, addend: 0x0, symName: __ZNSt3__116reverse_iteratorIPN3ast11program_errEEpLB8ue170006El, symObjAddr: 0x8B80, symBinAddr: 0x10001E11C, symSize: 0x84 }
  - { offsetInCU: 0xCECF, offset: 0x32331, size: 0x8, addend: 0x0, symName: __ZNSt3__116reverse_iteratorIPN3ast11program_errEEmmB8ue170006Ev, symObjAddr: 0x8C04, symBinAddr: 0x10001E1A0, symSize: 0x6C }
  - { offsetInCU: 0xCEF5, offset: 0x32357, size: 0x8, addend: 0x0, symName: __ZNSt3__116reverse_iteratorINS0_IPN3ast11program_errEEEEC2B8ue170006ES4_, symObjAddr: 0x8C70, symBinAddr: 0x10001E20C, symSize: 0x22C }
  - { offsetInCU: 0xCF32, offset: 0x32394, size: 0x8, addend: 0x0, symName: __ZNSt3__116reverse_iteratorIPN3ast11program_errEEC2B8ue170006ES3_, symObjAddr: 0x8E9C, symBinAddr: 0x10001E438, symSize: 0xB8 }
  - { offsetInCU: 0xCF6A, offset: 0x323CC, size: 0x8, addend: 0x0, symName: __ZNSt3__114__split_bufferIN3ast11program_errERNS_9allocatorIS2_EEED2Ev, symObjAddr: 0x8F54, symBinAddr: 0x10001E4F0, symSize: 0x104 }
  - { offsetInCU: 0xCF96, offset: 0x323F8, size: 0x8, addend: 0x0, symName: __ZNSt3__114__split_bufferIN3ast11program_errERNS_9allocatorIS2_EEE5clearB8ue170006Ev, symObjAddr: 0x9058, symBinAddr: 0x10001E5F4, symSize: 0x68 }
  - { offsetInCU: 0xCFBC, offset: 0x3241E, size: 0x8, addend: 0x0, symName: __ZNKSt3__114__split_bufferIN3ast11program_errERNS_9allocatorIS2_EEE8capacityB8ue170006Ev, symObjAddr: 0x90F4, symBinAddr: 0x10001E65C, symSize: 0xBC }
  - { offsetInCU: 0xCFE2, offset: 0x32444, size: 0x8, addend: 0x0, symName: __ZNSt3__114__split_bufferIN3ast11program_errERNS_9allocatorIS2_EEE17__destruct_at_endB8ue170006EPS2_, symObjAddr: 0x91B0, symBinAddr: 0x10001E718, symSize: 0x2C }
  - { offsetInCU: 0xD016, offset: 0x32478, size: 0x8, addend: 0x0, symName: __ZNSt3__114__split_bufferIN3ast11program_errERNS_9allocatorIS2_EEE17__destruct_at_endB8ue170006EPS2_NS_17integral_constantIbLb0EEE, symObjAddr: 0x91DC, symBinAddr: 0x10001E744, symSize: 0x10C }
  - { offsetInCU: 0xD057, offset: 0x324B9, size: 0x8, addend: 0x0, symName: __ZNKSt3__114__split_bufferIN3ast11program_errERNS_9allocatorIS2_EEE9__end_capB8ue170006Ev, symObjAddr: 0x943C, symBinAddr: 0x10001E850, symSize: 0x28 }
  - { offsetInCU: 0xD07D, offset: 0x324DF, size: 0x8, addend: 0x0, symName: __ZNKSt3__117__compressed_pairIPN3ast11program_errERNS_9allocatorIS2_EEE5firstB8ue170006Ev, symObjAddr: 0x9464, symBinAddr: 0x10001E878, symSize: 0x24 }
  - { offsetInCU: 0xD0A8, offset: 0x3250A, size: 0x8, addend: 0x0, symName: __ZNSt3__16vectorIN11expressions12expr_literalENS_9allocatorIS2_EEE9push_backB8ue170006ERKS2_, symObjAddr: 0x98D4, symBinAddr: 0x10001E89C, symSize: 0xE0 }
  - { offsetInCU: 0xD0DF, offset: 0x32541, size: 0x8, addend: 0x0, symName: __ZNSt3__16vectorIN11expressions12expr_literalENS_9allocatorIS2_EEE9__end_capB8ue170006Ev, symObjAddr: 0x99B4, symBinAddr: 0x10001E97C, symSize: 0x28 }
  - { offsetInCU: 0xD10A, offset: 0x3256C, size: 0x8, addend: 0x0, symName: __ZNSt3__16vectorIN11expressions12expr_literalENS_9allocatorIS2_EEE22__construct_one_at_endB8ue170006IJRKS2_EEEvDpOT_, symObjAddr: 0x99DC, symBinAddr: 0x10001E9A4, symSize: 0x36C }
  - { offsetInCU: 0xD15F, offset: 0x325C1, size: 0x8, addend: 0x0, symName: __ZNSt3__16vectorIN11expressions12expr_literalENS_9allocatorIS2_EEE21__push_back_slow_pathIRKS2_EEvOT_, symObjAddr: 0x9D48, symBinAddr: 0x10001ED10, symSize: 0x3C0 }
  - { offsetInCU: 0xD1C4, offset: 0x32626, size: 0x8, addend: 0x0, symName: __ZNSt3__117__compressed_pairIPN11expressions12expr_literalENS_9allocatorIS2_EEE5firstB8ue170006Ev, symObjAddr: 0xA108, symBinAddr: 0x10001F0D0, symSize: 0x24 }
  - { offsetInCU: 0xD1EA, offset: 0x3264C, size: 0x8, addend: 0x0, symName: __ZNSt3__122__compressed_pair_elemIPN11expressions12expr_literalELi0ELb0EE5__getB8ue170006Ev, symObjAddr: 0xA12C, symBinAddr: 0x10001F0F4, symSize: 0x14 }
  - { offsetInCU: 0xD229, offset: 0x3268B, size: 0x8, addend: 0x0, symName: __ZNSt3__16vectorIN11expressions12expr_literalENS_9allocatorIS2_EEE21_ConstructTransactionC1B8ue170006ERS5_m, symObjAddr: 0xA140, symBinAddr: 0x10001F108, symSize: 0x3C }
  - { offsetInCU: 0xD271, offset: 0x326D3, size: 0x8, addend: 0x0, symName: __ZNSt3__116allocator_traitsINS_9allocatorIN11expressions12expr_literalEEEE9constructB8ue170006IS3_JRKS3_EvvEEvRS4_PT_DpOT0_, symObjAddr: 0xA17C, symBinAddr: 0x10001F144, symSize: 0x30 }
  - { offsetInCU: 0xD2C6, offset: 0x32728, size: 0x8, addend: 0x0, symName: __ZNSt3__16vectorIN11expressions12expr_literalENS_9allocatorIS2_EEE21_ConstructTransactionD1B8ue170006Ev, symObjAddr: 0xA1E8, symBinAddr: 0x10001F174, symSize: 0x2C }
  - { offsetInCU: 0xD2F0, offset: 0x32752, size: 0x8, addend: 0x0, symName: __ZNSt3__16vectorIN11expressions12expr_literalENS_9allocatorIS2_EEE21_ConstructTransactionC2B8ue170006ERS5_m, symObjAddr: 0xA214, symBinAddr: 0x10001F1A0, symSize: 0x1D0 }
  - { offsetInCU: 0xD338, offset: 0x3279A, size: 0x8, addend: 0x0, symName: __ZNKSt3__16vectorIN11expressions12expr_literalENS_9allocatorIS2_EEE19__annotate_increaseB8ue170006Em, symObjAddr: 0xA3E4, symBinAddr: 0x10001F370, symSize: 0xD8 }
  - { offsetInCU: 0xD36D, offset: 0x327CF, size: 0x8, addend: 0x0, symName: __ZNSt3__16vectorIN11expressions12expr_literalENS_9allocatorIS2_EEE21_ConstructTransactionD2B8ue170006Ev, symObjAddr: 0xA70C, symBinAddr: 0x10001F488, symSize: 0x278 }
  - { offsetInCU: 0xD397, offset: 0x327F9, size: 0x8, addend: 0x0, symName: __ZNKSt3__16vectorIN11expressions12expr_literalENS_9allocatorIS2_EEE17__annotate_shrinkB8ue170006Em, symObjAddr: 0xA984, symBinAddr: 0x10001F700, symSize: 0xC8 }
  - { offsetInCU: 0xD3CC, offset: 0x3282E, size: 0x8, addend: 0x0, symName: __ZNKSt3__16vectorIN11expressions12expr_literalENS_9allocatorIS2_EEE11__recommendB8ue170006Em, symObjAddr: 0xAA4C, symBinAddr: 0x10001F7C8, symSize: 0x384 }
  - { offsetInCU: 0xD428, offset: 0x3288A, size: 0x8, addend: 0x0, symName: __ZNSt3__114__split_bufferIN11expressions12expr_literalERNS_9allocatorIS2_EEEC1EmmS5_, symObjAddr: 0xADD0, symBinAddr: 0x10001FB4C, symSize: 0x44 }
  - { offsetInCU: 0xD47E, offset: 0x328E0, size: 0x8, addend: 0x0, symName: __ZNSt3__114__split_bufferIN11expressions12expr_literalERNS_9allocatorIS2_EEED1Ev, symObjAddr: 0xB380, symBinAddr: 0x1000200FC, symSize: 0x2C }
  - { offsetInCU: 0xD4AA, offset: 0x3290C, size: 0x8, addend: 0x0, symName: __ZNKSt3__16vectorIN11expressions12expr_literalENS_9allocatorIS2_EEE8max_sizeEv, symObjAddr: 0xB3AC, symBinAddr: 0x100020128, symSize: 0x2FC }
  - { offsetInCU: 0xD4D3, offset: 0x32935, size: 0x8, addend: 0x0, symName: __ZNKSt3__16vectorIN11expressions12expr_literalENS_9allocatorIS2_EEE20__throw_length_errorB8ue170006Ev, symObjAddr: 0xB6A8, symBinAddr: 0x100020424, symSize: 0x20 }
  - { offsetInCU: 0xD503, offset: 0x32965, size: 0x8, addend: 0x0, symName: __ZNSt3__116allocator_traitsINS_9allocatorIN11expressions12expr_literalEEEE8max_sizeB8ue170006IS4_vvEEmRKS4_, symObjAddr: 0xB6C8, symBinAddr: 0x100020444, symSize: 0x28 }
  - { offsetInCU: 0xD52F, offset: 0x32991, size: 0x8, addend: 0x0, symName: __ZNKSt3__16vectorIN11expressions12expr_literalENS_9allocatorIS2_EEE7__allocB8ue170006Ev, symObjAddr: 0xB6F0, symBinAddr: 0x10002046C, symSize: 0x28 }
  - { offsetInCU: 0xD555, offset: 0x329B7, size: 0x8, addend: 0x0, symName: __ZNKSt3__117__compressed_pairIPN11expressions12expr_literalENS_9allocatorIS2_EEE6secondB8ue170006Ev, symObjAddr: 0xB718, symBinAddr: 0x100020494, symSize: 0x24 }
  - { offsetInCU: 0xD57B, offset: 0x329DD, size: 0x8, addend: 0x0, symName: __ZNKSt3__122__compressed_pair_elemINS_9allocatorIN11expressions12expr_literalEEELi1ELb1EE5__getB8ue170006Ev, symObjAddr: 0xB73C, symBinAddr: 0x1000204B8, symSize: 0x14 }
  - { offsetInCU: 0xD5A1, offset: 0x32A03, size: 0x8, addend: 0x0, symName: __ZNSt3__114__split_bufferIN11expressions12expr_literalERNS_9allocatorIS2_EEEC2EmmS5_, symObjAddr: 0xB750, symBinAddr: 0x1000204CC, symSize: 0x520 }
  - { offsetInCU: 0xD61C, offset: 0x32A7E, size: 0x8, addend: 0x0, symName: __ZNSt3__117__compressed_pairIPN11expressions12expr_literalERNS_9allocatorIS2_EEEC1B8ue170006IDnS6_EEOT_OT0_, symObjAddr: 0xBC70, symBinAddr: 0x1000209EC, symSize: 0x3C }
  - { offsetInCU: 0xD674, offset: 0x32AD6, size: 0x8, addend: 0x0, symName: __ZNSt3__114__split_bufferIN11expressions12expr_literalERNS_9allocatorIS2_EEE7__allocB8ue170006Ev, symObjAddr: 0xBF38, symBinAddr: 0x100020CB4, symSize: 0x28 }
  - { offsetInCU: 0xD69A, offset: 0x32AFC, size: 0x8, addend: 0x0, symName: __ZNSt3__114__split_bufferIN11expressions12expr_literalERNS_9allocatorIS2_EEE9__end_capB8ue170006Ev, symObjAddr: 0xBF60, symBinAddr: 0x100020CDC, symSize: 0x28 }
  - { offsetInCU: 0xD6C0, offset: 0x32B22, size: 0x8, addend: 0x0, symName: __ZNSt3__117__compressed_pairIPN11expressions12expr_literalERNS_9allocatorIS2_EEEC2B8ue170006IDnS6_EEOT_OT0_, symObjAddr: 0xBF88, symBinAddr: 0x100020D04, symSize: 0x48 }
  - { offsetInCU: 0xD718, offset: 0x32B7A, size: 0x8, addend: 0x0, symName: __ZNSt3__122__compressed_pair_elemIPN11expressions12expr_literalELi0ELb0EEC2B8ue170006IDnvEEOT_, symObjAddr: 0xBFD0, symBinAddr: 0x100020D4C, symSize: 0x64 }
  - { offsetInCU: 0xD75A, offset: 0x32BBC, size: 0x8, addend: 0x0, symName: __ZNSt3__122__compressed_pair_elemIRNS_9allocatorIN11expressions12expr_literalEEELi1ELb0EEC2B8ue170006IS5_vEEOT_, symObjAddr: 0xC034, symBinAddr: 0x100020DB0, symSize: 0x70 }
  - { offsetInCU: 0xD79C, offset: 0x32BFE, size: 0x8, addend: 0x0, symName: __ZNSt3__19allocatorIN11expressions12expr_literalEE8allocateB8ue170006Em, symObjAddr: 0xC0A4, symBinAddr: 0x100020E20, symSize: 0x5C }
  - { offsetInCU: 0xD7D0, offset: 0x32C32, size: 0x8, addend: 0x0, symName: __ZNSt3__117__compressed_pairIPN11expressions12expr_literalERNS_9allocatorIS2_EEE6secondB8ue170006Ev, symObjAddr: 0xC100, symBinAddr: 0x100020E7C, symSize: 0x28 }
  - { offsetInCU: 0xD7F6, offset: 0x32C58, size: 0x8, addend: 0x0, symName: __ZNSt3__122__compressed_pair_elemIRNS_9allocatorIN11expressions12expr_literalEEELi1ELb0EE5__getB8ue170006Ev, symObjAddr: 0xC128, symBinAddr: 0x100020EA4, symSize: 0x60 }
  - { offsetInCU: 0xD81C, offset: 0x32C7E, size: 0x8, addend: 0x0, symName: __ZNSt3__117__compressed_pairIPN11expressions12expr_literalERNS_9allocatorIS2_EEE5firstB8ue170006Ev, symObjAddr: 0xC188, symBinAddr: 0x100020F04, symSize: 0x24 }
  - { offsetInCU: 0xD842, offset: 0x32CA4, size: 0x8, addend: 0x0, symName: __ZNSt3__116reverse_iteratorIPN11expressions12expr_literalEEC1B8ue170006ES3_, symObjAddr: 0xC720, symBinAddr: 0x1000213D0, symSize: 0x34 }
  - { offsetInCU: 0xD87A, offset: 0x32CDC, size: 0x8, addend: 0x0, symName: __ZNKSt3__116reverse_iteratorIPN11expressions12expr_literalEE4baseB8ue170006Ev, symObjAddr: 0xC754, symBinAddr: 0x100021404, symSize: 0x64 }
  - { offsetInCU: 0xD8A0, offset: 0x32D02, size: 0x8, addend: 0x0, symName: __ZNKSt3__16vectorIN11expressions12expr_literalENS_9allocatorIS2_EEE14__annotate_newB8ue170006Em, symObjAddr: 0xC8EC, symBinAddr: 0x10002159C, symSize: 0xC0 }
  - { offsetInCU: 0xD8F8, offset: 0x32D5A, size: 0x8, addend: 0x0, symName: __ZNKSt3__111__move_loopINS_17_ClassicAlgPolicyEEclB8ue170006INS_16reverse_iteratorIPN11expressions12expr_literalEEES8_S8_EENS_4pairIT_T1_EESA_T0_SB_, symObjAddr: 0xE280, symBinAddr: 0x100022F30, symSize: 0x344 }
  - { offsetInCU: 0xD970, offset: 0x32DD2, size: 0x8, addend: 0x0, symName: __ZNSt3__119__unwrap_range_implINS_16reverse_iteratorIPN11expressions12expr_literalEEES5_E8__unwrapB8ue170006ES5_S5_, symObjAddr: 0xF0A4, symBinAddr: 0x100023D54, symSize: 0x448 }
  - { offsetInCU: 0xD9AE, offset: 0x32E10, size: 0x8, addend: 0x0, symName: __ZNSt3__14pairINS_16reverse_iteratorIPN11expressions12expr_literalEEES5_EC1B8ue170006IS5_S5_LPv0EEEOT_OT0_, symObjAddr: 0xF4EC, symBinAddr: 0x10002419C, symSize: 0x3C }
  - { offsetInCU: 0xDA0D, offset: 0x32E6F, size: 0x8, addend: 0x0, symName: __ZNSt3__14pairINS_16reverse_iteratorIPN11expressions12expr_literalEEES5_EC2B8ue170006IS5_S5_LPv0EEEOT_OT0_, symObjAddr: 0xF528, symBinAddr: 0x1000241D8, symSize: 0x54 }
  - { offsetInCU: 0xDA71, offset: 0x32ED3, size: 0x8, addend: 0x0, symName: __ZNSt3__18_IterOpsINS_17_ClassicAlgPolicyEE11__iter_moveB8ue170006IRNS_16reverse_iteratorIPN11expressions12expr_literalEEEEENS_9enable_ifIXsr12is_referenceIDTdeclsr3stdE7declvalIRT_EEEEE5valueEDTclsr3stdE4movedeclsr3stdE7declvalISC_EEEEE4typeEOSB_, symObjAddr: 0xF5C4, symBinAddr: 0x100024274, symSize: 0x28 }
  - { offsetInCU: 0xDA9D, offset: 0x32EFF, size: 0x8, addend: 0x0, symName: __ZNKSt3__116reverse_iteratorIPN11expressions12expr_literalEEdeB8ue170006Ev, symObjAddr: 0xF5EC, symBinAddr: 0x10002429C, symSize: 0x74 }
  - { offsetInCU: 0xDAD2, offset: 0x32F34, size: 0x8, addend: 0x0, symName: __ZNSt3__116reverse_iteratorIPN11expressions12expr_literalEEppB8ue170006Ev, symObjAddr: 0xF660, symBinAddr: 0x100024310, symSize: 0x6C }
  - { offsetInCU: 0xDAF8, offset: 0x32F5A, size: 0x8, addend: 0x0, symName: __ZNSt3__18_IterOpsINS_17_ClassicAlgPolicyEE25__validate_iter_referenceB8ue170006IRNS_16reverse_iteratorIPN11expressions12expr_literalEEEEEvv, symObjAddr: 0xF6CC, symBinAddr: 0x10002437C, symSize: 0x4 }
  - { offsetInCU: 0xDB16, offset: 0x32F78, size: 0x8, addend: 0x0, symName: __ZNSt3__118__unwrap_iter_implINS_16reverse_iteratorIPN11expressions12expr_literalEEELb0EE8__unwrapB8ue170006ES5_, symObjAddr: 0xF6D0, symBinAddr: 0x100024380, symSize: 0x274 }
  - { offsetInCU: 0xDB3D, offset: 0x32F9F, size: 0x8, addend: 0x0, symName: __ZNSt3__119__unwrap_range_implINS_16reverse_iteratorIPN11expressions12expr_literalEEES5_E8__rewrapB8ue170006ES5_S5_, symObjAddr: 0xF944, symBinAddr: 0x1000245F4, symSize: 0x3D4 }
  - { offsetInCU: 0xDB76, offset: 0x32FD8, size: 0x8, addend: 0x0, symName: __ZNSt3__118__unwrap_iter_implINS_16reverse_iteratorIPN11expressions12expr_literalEEELb0EE8__rewrapB8ue170006ES5_S5_, symObjAddr: 0xFD18, symBinAddr: 0x1000249C8, symSize: 0x2E0 }
  - { offsetInCU: 0xDBAC, offset: 0x3300E, size: 0x8, addend: 0x0, symName: __ZNSt3__116reverse_iteratorIPN11expressions12expr_literalEEC2B8ue170006ES3_, symObjAddr: 0xFFF8, symBinAddr: 0x100024CA8, symSize: 0xB8 }
  - { offsetInCU: 0xDBE4, offset: 0x33046, size: 0x8, addend: 0x0, symName: __ZNSt3__114__split_bufferIN11expressions12expr_literalERNS_9allocatorIS2_EEED2Ev, symObjAddr: 0x100B0, symBinAddr: 0x100024D60, symSize: 0x104 }
  - { offsetInCU: 0xDC10, offset: 0x33072, size: 0x8, addend: 0x0, symName: __ZNSt3__114__split_bufferIN11expressions12expr_literalERNS_9allocatorIS2_EEE5clearB8ue170006Ev, symObjAddr: 0x101B4, symBinAddr: 0x100024E64, symSize: 0x68 }
  - { offsetInCU: 0xDC36, offset: 0x33098, size: 0x8, addend: 0x0, symName: __ZNKSt3__114__split_bufferIN11expressions12expr_literalERNS_9allocatorIS2_EEE8capacityB8ue170006Ev, symObjAddr: 0x10250, symBinAddr: 0x100024ECC, symSize: 0xBC }
  - { offsetInCU: 0xDC5C, offset: 0x330BE, size: 0x8, addend: 0x0, symName: __ZNSt3__114__split_bufferIN11expressions12expr_literalERNS_9allocatorIS2_EEE17__destruct_at_endB8ue170006EPS2_, symObjAddr: 0x1030C, symBinAddr: 0x100024F88, symSize: 0x2C }
  - { offsetInCU: 0xDC90, offset: 0x330F2, size: 0x8, addend: 0x0, symName: __ZNSt3__114__split_bufferIN11expressions12expr_literalERNS_9allocatorIS2_EEE17__destruct_at_endB8ue170006EPS2_NS_17integral_constantIbLb0EEE, symObjAddr: 0x10338, symBinAddr: 0x100024FB4, symSize: 0x10C }
  - { offsetInCU: 0xDCD1, offset: 0x33133, size: 0x8, addend: 0x0, symName: __ZNKSt3__114__split_bufferIN11expressions12expr_literalERNS_9allocatorIS2_EEE9__end_capB8ue170006Ev, symObjAddr: 0x104EC, symBinAddr: 0x1000250C0, symSize: 0x28 }
  - { offsetInCU: 0xDCF7, offset: 0x33159, size: 0x8, addend: 0x0, symName: __ZNKSt3__117__compressed_pairIPN11expressions12expr_literalERNS_9allocatorIS2_EEE5firstB8ue170006Ev, symObjAddr: 0x10514, symBinAddr: 0x1000250E8, symSize: 0x24 }
  - { offsetInCU: 0xDD1D, offset: 0x3317F, size: 0x8, addend: 0x0, symName: __ZNSt3__16vectorIN10statements4stmtENS_9allocatorIS2_EEE9push_backB8ue170006EOS2_, symObjAddr: 0x10538, symBinAddr: 0x10002510C, symSize: 0xE0 }
  - { offsetInCU: 0xDD54, offset: 0x331B6, size: 0x8, addend: 0x0, symName: __ZNSt3__16vectorIN10statements4stmtENS_9allocatorIS2_EEE9__end_capB8ue170006Ev, symObjAddr: 0x10618, symBinAddr: 0x1000251EC, symSize: 0x28 }
  - { offsetInCU: 0xDD7F, offset: 0x331E1, size: 0x8, addend: 0x0, symName: __ZNSt3__16vectorIN10statements4stmtENS_9allocatorIS2_EEE22__construct_one_at_endB8ue170006IJS2_EEEvDpOT_, symObjAddr: 0x10640, symBinAddr: 0x100025214, symSize: 0x36C }
  - { offsetInCU: 0xDDD4, offset: 0x33236, size: 0x8, addend: 0x0, symName: __ZNSt3__16vectorIN10statements4stmtENS_9allocatorIS2_EEE21__push_back_slow_pathIS2_EEvOT_, symObjAddr: 0x109AC, symBinAddr: 0x100025580, symSize: 0x3C0 }
  - { offsetInCU: 0xDE39, offset: 0x3329B, size: 0x8, addend: 0x0, symName: __ZNSt3__117__compressed_pairIPN10statements4stmtENS_9allocatorIS2_EEE5firstB8ue170006Ev, symObjAddr: 0x10D6C, symBinAddr: 0x100025940, symSize: 0x24 }
  - { offsetInCU: 0xDE5F, offset: 0x332C1, size: 0x8, addend: 0x0, symName: __ZNSt3__122__compressed_pair_elemIPN10statements4stmtELi0ELb0EE5__getB8ue170006Ev, symObjAddr: 0x10D90, symBinAddr: 0x100025964, symSize: 0x14 }
  - { offsetInCU: 0xDE9E, offset: 0x33300, size: 0x8, addend: 0x0, symName: __ZNSt3__16vectorIN10statements4stmtENS_9allocatorIS2_EEE21_ConstructTransactionC1B8ue170006ERS5_m, symObjAddr: 0x10DA4, symBinAddr: 0x100025978, symSize: 0x3C }
  - { offsetInCU: 0xDEE6, offset: 0x33348, size: 0x8, addend: 0x0, symName: __ZNSt3__116allocator_traitsINS_9allocatorIN10statements4stmtEEEE9constructB8ue170006IS3_JS3_EvvEEvRS4_PT_DpOT0_, symObjAddr: 0x10DE0, symBinAddr: 0x1000259B4, symSize: 0x30 }
  - { offsetInCU: 0xDF3B, offset: 0x3339D, size: 0x8, addend: 0x0, symName: __ZNSt3__16vectorIN10statements4stmtENS_9allocatorIS2_EEE21_ConstructTransactionD1B8ue170006Ev, symObjAddr: 0x10E4C, symBinAddr: 0x1000259E4, symSize: 0x2C }
  - { offsetInCU: 0xDF65, offset: 0x333C7, size: 0x8, addend: 0x0, symName: __ZNSt3__16vectorIN10statements4stmtENS_9allocatorIS2_EEE21_ConstructTransactionC2B8ue170006ERS5_m, symObjAddr: 0x10E78, symBinAddr: 0x100025A10, symSize: 0x1D8 }
  - { offsetInCU: 0xDFAD, offset: 0x3340F, size: 0x8, addend: 0x0, symName: __ZNKSt3__16vectorIN10statements4stmtENS_9allocatorIS2_EEE19__annotate_increaseB8ue170006Em, symObjAddr: 0x11050, symBinAddr: 0x100025BE8, symSize: 0xF8 }
  - { offsetInCU: 0xDFE2, offset: 0x33444, size: 0x8, addend: 0x0, symName: __ZNSt3__16vectorIN10statements4stmtENS_9allocatorIS2_EEE21_ConstructTransactionD2B8ue170006Ev, symObjAddr: 0x11448, symBinAddr: 0x100025D20, symSize: 0x278 }
  - { offsetInCU: 0xE00C, offset: 0x3346E, size: 0x8, addend: 0x0, symName: __ZNKSt3__16vectorIN10statements4stmtENS_9allocatorIS2_EEE17__annotate_shrinkB8ue170006Em, symObjAddr: 0x116C0, symBinAddr: 0x100025F98, symSize: 0xE4 }
  - { offsetInCU: 0xE041, offset: 0x334A3, size: 0x8, addend: 0x0, symName: __ZNKSt3__16vectorIN10statements4stmtENS_9allocatorIS2_EEE11__recommendB8ue170006Em, symObjAddr: 0x117A4, symBinAddr: 0x10002607C, symSize: 0x384 }
  - { offsetInCU: 0xE09D, offset: 0x334FF, size: 0x8, addend: 0x0, symName: __ZNSt3__114__split_bufferIN10statements4stmtERNS_9allocatorIS2_EEEC1EmmS5_, symObjAddr: 0x11B28, symBinAddr: 0x100026400, symSize: 0x44 }
  - { offsetInCU: 0xE0F3, offset: 0x33555, size: 0x8, addend: 0x0, symName: __ZNSt3__114__split_bufferIN10statements4stmtERNS_9allocatorIS2_EEED1Ev, symObjAddr: 0x120D8, symBinAddr: 0x1000269B0, symSize: 0x2C }
  - { offsetInCU: 0xE11F, offset: 0x33581, size: 0x8, addend: 0x0, symName: __ZNKSt3__16vectorIN10statements4stmtENS_9allocatorIS2_EEE8max_sizeEv, symObjAddr: 0x12104, symBinAddr: 0x1000269DC, symSize: 0x2FC }
  - { offsetInCU: 0xE148, offset: 0x335AA, size: 0x8, addend: 0x0, symName: __ZNKSt3__16vectorIN10statements4stmtENS_9allocatorIS2_EEE20__throw_length_errorB8ue170006Ev, symObjAddr: 0x12400, symBinAddr: 0x100026CD8, symSize: 0x20 }
  - { offsetInCU: 0xE178, offset: 0x335DA, size: 0x8, addend: 0x0, symName: __ZNSt3__116allocator_traitsINS_9allocatorIN10statements4stmtEEEE8max_sizeB8ue170006IS4_vvEEmRKS4_, symObjAddr: 0x12420, symBinAddr: 0x100026CF8, symSize: 0x28 }
  - { offsetInCU: 0xE1A4, offset: 0x33606, size: 0x8, addend: 0x0, symName: __ZNKSt3__16vectorIN10statements4stmtENS_9allocatorIS2_EEE7__allocB8ue170006Ev, symObjAddr: 0x12448, symBinAddr: 0x100026D20, symSize: 0x28 }
  - { offsetInCU: 0xE1CA, offset: 0x3362C, size: 0x8, addend: 0x0, symName: __ZNKSt3__117__compressed_pairIPN10statements4stmtENS_9allocatorIS2_EEE6secondB8ue170006Ev, symObjAddr: 0x12470, symBinAddr: 0x100026D48, symSize: 0x24 }
  - { offsetInCU: 0xE1F0, offset: 0x33652, size: 0x8, addend: 0x0, symName: __ZNKSt3__122__compressed_pair_elemINS_9allocatorIN10statements4stmtEEELi1ELb1EE5__getB8ue170006Ev, symObjAddr: 0x12494, symBinAddr: 0x100026D6C, symSize: 0x14 }
  - { offsetInCU: 0xE216, offset: 0x33678, size: 0x8, addend: 0x0, symName: __ZNSt3__114__split_bufferIN10statements4stmtERNS_9allocatorIS2_EEEC2EmmS5_, symObjAddr: 0x124A8, symBinAddr: 0x100026D80, symSize: 0x530 }
  - { offsetInCU: 0xE291, offset: 0x336F3, size: 0x8, addend: 0x0, symName: __ZNSt3__117__compressed_pairIPN10statements4stmtERNS_9allocatorIS2_EEEC1B8ue170006IDnS6_EEOT_OT0_, symObjAddr: 0x129D8, symBinAddr: 0x1000272B0, symSize: 0x3C }
  - { offsetInCU: 0xE2E9, offset: 0x3374B, size: 0x8, addend: 0x0, symName: __ZNSt3__114__split_bufferIN10statements4stmtERNS_9allocatorIS2_EEE7__allocB8ue170006Ev, symObjAddr: 0x12CA0, symBinAddr: 0x100027578, symSize: 0x28 }
  - { offsetInCU: 0xE30F, offset: 0x33771, size: 0x8, addend: 0x0, symName: __ZNSt3__114__split_bufferIN10statements4stmtERNS_9allocatorIS2_EEE9__end_capB8ue170006Ev, symObjAddr: 0x12CC8, symBinAddr: 0x1000275A0, symSize: 0x28 }
  - { offsetInCU: 0xE335, offset: 0x33797, size: 0x8, addend: 0x0, symName: __ZNSt3__117__compressed_pairIPN10statements4stmtERNS_9allocatorIS2_EEEC2B8ue170006IDnS6_EEOT_OT0_, symObjAddr: 0x12CF0, symBinAddr: 0x1000275C8, symSize: 0x48 }
  - { offsetInCU: 0xE38D, offset: 0x337EF, size: 0x8, addend: 0x0, symName: __ZNSt3__122__compressed_pair_elemIPN10statements4stmtELi0ELb0EEC2B8ue170006IDnvEEOT_, symObjAddr: 0x12D38, symBinAddr: 0x100027610, symSize: 0x64 }
  - { offsetInCU: 0xE3CF, offset: 0x33831, size: 0x8, addend: 0x0, symName: __ZNSt3__122__compressed_pair_elemIRNS_9allocatorIN10statements4stmtEEELi1ELb0EEC2B8ue170006IS5_vEEOT_, symObjAddr: 0x12D9C, symBinAddr: 0x100027674, symSize: 0x70 }
  - { offsetInCU: 0xE411, offset: 0x33873, size: 0x8, addend: 0x0, symName: __ZNSt3__19allocatorIN10statements4stmtEE8allocateB8ue170006Em, symObjAddr: 0x12E0C, symBinAddr: 0x1000276E4, symSize: 0x60 }
  - { offsetInCU: 0xE445, offset: 0x338A7, size: 0x8, addend: 0x0, symName: __ZNSt3__117__compressed_pairIPN10statements4stmtERNS_9allocatorIS2_EEE6secondB8ue170006Ev, symObjAddr: 0x12E6C, symBinAddr: 0x100027744, symSize: 0x28 }
  - { offsetInCU: 0xE46B, offset: 0x338CD, size: 0x8, addend: 0x0, symName: __ZNSt3__122__compressed_pair_elemIRNS_9allocatorIN10statements4stmtEEELi1ELb0EE5__getB8ue170006Ev, symObjAddr: 0x12E94, symBinAddr: 0x10002776C, symSize: 0x60 }
  - { offsetInCU: 0xE491, offset: 0x338F3, size: 0x8, addend: 0x0, symName: __ZNSt3__117__compressed_pairIPN10statements4stmtERNS_9allocatorIS2_EEE5firstB8ue170006Ev, symObjAddr: 0x12EF4, symBinAddr: 0x1000277CC, symSize: 0x24 }
  - { offsetInCU: 0xE4B7, offset: 0x33919, size: 0x8, addend: 0x0, symName: __ZNSt3__116reverse_iteratorIPN10statements4stmtEEC1B8ue170006ES3_, symObjAddr: 0x134A8, symBinAddr: 0x100027C98, symSize: 0x34 }
  - { offsetInCU: 0xE4EF, offset: 0x33951, size: 0x8, addend: 0x0, symName: __ZNKSt3__116reverse_iteratorIPN10statements4stmtEE4baseB8ue170006Ev, symObjAddr: 0x134DC, symBinAddr: 0x100027CCC, symSize: 0x64 }
  - { offsetInCU: 0xE515, offset: 0x33977, size: 0x8, addend: 0x0, symName: __ZNKSt3__16vectorIN10statements4stmtENS_9allocatorIS2_EEE14__annotate_newB8ue170006Em, symObjAddr: 0x13674, symBinAddr: 0x100027E64, symSize: 0xDC }
  - { offsetInCU: 0xE563, offset: 0x339C5, size: 0x8, addend: 0x0, symName: __ZNKSt3__111__move_loopINS_17_ClassicAlgPolicyEEclB8ue170006INS_16reverse_iteratorIPN10statements4stmtEEES8_S8_EENS_4pairIT_T1_EESA_T0_SB_, symObjAddr: 0x15024, symBinAddr: 0x100029814, symSize: 0x344 }
  - { offsetInCU: 0xE5DB, offset: 0x33A3D, size: 0x8, addend: 0x0, symName: __ZNSt3__119__unwrap_range_implINS_16reverse_iteratorIPN10statements4stmtEEES5_E8__unwrapB8ue170006ES5_S5_, symObjAddr: 0x15E48, symBinAddr: 0x10002A638, symSize: 0x448 }
  - { offsetInCU: 0xE619, offset: 0x33A7B, size: 0x8, addend: 0x0, symName: __ZNSt3__14pairINS_16reverse_iteratorIPN10statements4stmtEEES5_EC1B8ue170006IS5_S5_LPv0EEEOT_OT0_, symObjAddr: 0x16290, symBinAddr: 0x10002AA80, symSize: 0x3C }
  - { offsetInCU: 0xE678, offset: 0x33ADA, size: 0x8, addend: 0x0, symName: __ZNSt3__14pairINS_16reverse_iteratorIPN10statements4stmtEEES5_EC2B8ue170006IS5_S5_LPv0EEEOT_OT0_, symObjAddr: 0x162CC, symBinAddr: 0x10002AABC, symSize: 0x54 }
  - { offsetInCU: 0xE6D7, offset: 0x33B39, size: 0x8, addend: 0x0, symName: __ZNSt3__18_IterOpsINS_17_ClassicAlgPolicyEE11__iter_moveB8ue170006IRNS_16reverse_iteratorIPN10statements4stmtEEEEENS_9enable_ifIXsr12is_referenceIDTdeclsr3stdE7declvalIRT_EEEEE5valueEDTclsr3stdE4movedeclsr3stdE7declvalISC_EEEEE4typeEOSB_, symObjAddr: 0x16368, symBinAddr: 0x10002AB58, symSize: 0x28 }
  - { offsetInCU: 0xE703, offset: 0x33B65, size: 0x8, addend: 0x0, symName: __ZNKSt3__116reverse_iteratorIPN10statements4stmtEEdeB8ue170006Ev, symObjAddr: 0x16390, symBinAddr: 0x10002AB80, symSize: 0x74 }
  - { offsetInCU: 0xE738, offset: 0x33B9A, size: 0x8, addend: 0x0, symName: __ZNSt3__116reverse_iteratorIPN10statements4stmtEEppB8ue170006Ev, symObjAddr: 0x16404, symBinAddr: 0x10002ABF4, symSize: 0x6C }
  - { offsetInCU: 0xE75E, offset: 0x33BC0, size: 0x8, addend: 0x0, symName: __ZNSt3__18_IterOpsINS_17_ClassicAlgPolicyEE25__validate_iter_referenceB8ue170006IRNS_16reverse_iteratorIPN10statements4stmtEEEEEvv, symObjAddr: 0x16470, symBinAddr: 0x10002AC60, symSize: 0x4 }
  - { offsetInCU: 0xE77C, offset: 0x33BDE, size: 0x8, addend: 0x0, symName: __ZNSt3__118__unwrap_iter_implINS_16reverse_iteratorIPN10statements4stmtEEELb0EE8__unwrapB8ue170006ES5_, symObjAddr: 0x16474, symBinAddr: 0x10002AC64, symSize: 0x274 }
  - { offsetInCU: 0xE7A3, offset: 0x33C05, size: 0x8, addend: 0x0, symName: __ZNSt3__119__unwrap_range_implINS_16reverse_iteratorIPN10statements4stmtEEES5_E8__rewrapB8ue170006ES5_S5_, symObjAddr: 0x166E8, symBinAddr: 0x10002AED8, symSize: 0x3D4 }
  - { offsetInCU: 0xE7DC, offset: 0x33C3E, size: 0x8, addend: 0x0, symName: __ZNSt3__118__unwrap_iter_implINS_16reverse_iteratorIPN10statements4stmtEEELb0EE8__rewrapB8ue170006ES5_S5_, symObjAddr: 0x16ABC, symBinAddr: 0x10002B2AC, symSize: 0x2E0 }
  - { offsetInCU: 0xE812, offset: 0x33C74, size: 0x8, addend: 0x0, symName: __ZNSt3__116reverse_iteratorIPN10statements4stmtEEC2B8ue170006ES3_, symObjAddr: 0x16D9C, symBinAddr: 0x10002B58C, symSize: 0xB8 }
  - { offsetInCU: 0xE84A, offset: 0x33CAC, size: 0x8, addend: 0x0, symName: __ZNSt3__114__split_bufferIN10statements4stmtERNS_9allocatorIS2_EEED2Ev, symObjAddr: 0x16E54, symBinAddr: 0x10002B644, symSize: 0x104 }
  - { offsetInCU: 0xE876, offset: 0x33CD8, size: 0x8, addend: 0x0, symName: __ZNSt3__114__split_bufferIN10statements4stmtERNS_9allocatorIS2_EEE5clearB8ue170006Ev, symObjAddr: 0x16F58, symBinAddr: 0x10002B748, symSize: 0x68 }
  - { offsetInCU: 0xE89C, offset: 0x33CFE, size: 0x8, addend: 0x0, symName: __ZNKSt3__114__split_bufferIN10statements4stmtERNS_9allocatorIS2_EEE8capacityB8ue170006Ev, symObjAddr: 0x16FF4, symBinAddr: 0x10002B7B0, symSize: 0xBC }
  - { offsetInCU: 0xE8C2, offset: 0x33D24, size: 0x8, addend: 0x0, symName: __ZNSt3__114__split_bufferIN10statements4stmtERNS_9allocatorIS2_EEE17__destruct_at_endB8ue170006EPS2_, symObjAddr: 0x170B0, symBinAddr: 0x10002B86C, symSize: 0x2C }
  - { offsetInCU: 0xE8F6, offset: 0x33D58, size: 0x8, addend: 0x0, symName: __ZNSt3__114__split_bufferIN10statements4stmtERNS_9allocatorIS2_EEE17__destruct_at_endB8ue170006EPS2_NS_17integral_constantIbLb0EEE, symObjAddr: 0x170DC, symBinAddr: 0x10002B898, symSize: 0x10C }
  - { offsetInCU: 0xE937, offset: 0x33D99, size: 0x8, addend: 0x0, symName: __ZNKSt3__114__split_bufferIN10statements4stmtERNS_9allocatorIS2_EEE9__end_capB8ue170006Ev, symObjAddr: 0x17294, symBinAddr: 0x10002B9A4, symSize: 0x28 }
  - { offsetInCU: 0xE95D, offset: 0x33DBF, size: 0x8, addend: 0x0, symName: __ZNKSt3__117__compressed_pairIPN10statements4stmtERNS_9allocatorIS2_EEE5firstB8ue170006Ev, symObjAddr: 0x172BC, symBinAddr: 0x10002B9CC, symSize: 0x24 }
  - { offsetInCU: 0xE983, offset: 0x33DE5, size: 0x8, addend: 0x0, symName: __ZN3ast7programC2Ev, symObjAddr: 0x172E0, symBinAddr: 0x10002B9F0, symSize: 0x44 }
  - { offsetInCU: 0xE9B4, offset: 0x33E16, size: 0x8, addend: 0x0, symName: __ZN10statements14stmt_containerC1Ev, symObjAddr: 0x17324, symBinAddr: 0x10002BA34, symSize: 0x2C }
  - { offsetInCU: 0xE9E0, offset: 0x33E42, size: 0x8, addend: 0x0, symName: __ZN11expressions21expressions_containerC1Ev, symObjAddr: 0x17350, symBinAddr: 0x10002BA60, symSize: 0x2C }
  - { offsetInCU: 0xEA0C, offset: 0x33E6E, size: 0x8, addend: 0x0, symName: __ZNSt3__16vectorIN3ast11program_errENS_9allocatorIS2_EEEC1B8ue170006Ev, symObjAddr: 0x1737C, symBinAddr: 0x10002BA8C, symSize: 0x2C }
  - { offsetInCU: 0xEA36, offset: 0x33E98, size: 0x8, addend: 0x0, symName: __ZN10statements14stmt_containerC2Ev, symObjAddr: 0x173A8, symBinAddr: 0x10002BAB8, symSize: 0x2C }
  - { offsetInCU: 0xEA62, offset: 0x33EC4, size: 0x8, addend: 0x0, symName: __ZNSt3__16vectorIN10statements4stmtENS_9allocatorIS2_EEEC1B8ue170006Ev, symObjAddr: 0x173D4, symBinAddr: 0x10002BAE4, symSize: 0x2C }
  - { offsetInCU: 0xEA8C, offset: 0x33EEE, size: 0x8, addend: 0x0, symName: __ZNSt3__16vectorIN10statements4stmtENS_9allocatorIS2_EEEC2B8ue170006Ev, symObjAddr: 0x17400, symBinAddr: 0x10002BB10, symSize: 0x2E8 }
  - { offsetInCU: 0xEAB7, offset: 0x33F19, size: 0x8, addend: 0x0, symName: __ZNSt3__117__compressed_pairIPN10statements4stmtENS_9allocatorIS2_EEEC1B8ue170006IDnNS_18__default_init_tagEEEOT_OT0_, symObjAddr: 0x176E8, symBinAddr: 0x10002BDF8, symSize: 0x3C }
  - { offsetInCU: 0xEB0F, offset: 0x33F71, size: 0x8, addend: 0x0, symName: __ZNSt3__117__compressed_pairIPN10statements4stmtENS_9allocatorIS2_EEEC2B8ue170006IDnNS_18__default_init_tagEEEOT_OT0_, symObjAddr: 0x17724, symBinAddr: 0x10002BE34, symSize: 0x40 }
  - { offsetInCU: 0xEB67, offset: 0x33FC9, size: 0x8, addend: 0x0, symName: __ZNSt3__122__compressed_pair_elemINS_9allocatorIN10statements4stmtEEELi1ELb1EEC2B8ue170006ENS_18__default_init_tagE, symObjAddr: 0x17764, symBinAddr: 0x10002BE74, symSize: 0x2C }
  - { offsetInCU: 0xEB9C, offset: 0x33FFE, size: 0x8, addend: 0x0, symName: __ZNSt3__19allocatorIN10statements4stmtEEC2B8ue170006Ev, symObjAddr: 0x17790, symBinAddr: 0x10002BEA0, symSize: 0x2C }
  - { offsetInCU: 0xEBC6, offset: 0x34028, size: 0x8, addend: 0x0, symName: __ZNSt3__116__non_trivial_ifILb1ENS_9allocatorIN10statements4stmtEEEEC2B8ue170006Ev, symObjAddr: 0x177BC, symBinAddr: 0x10002BECC, symSize: 0x14 }
  - { offsetInCU: 0xEBF0, offset: 0x34052, size: 0x8, addend: 0x0, symName: __ZN11expressions21expressions_containerC2Ev, symObjAddr: 0x177D0, symBinAddr: 0x10002BEE0, symSize: 0x2C }
  - { offsetInCU: 0xEC1C, offset: 0x3407E, size: 0x8, addend: 0x0, symName: __ZNSt3__16vectorIN11expressions12expr_literalENS_9allocatorIS2_EEEC1B8ue170006Ev, symObjAddr: 0x177FC, symBinAddr: 0x10002BF0C, symSize: 0x2C }
  - { offsetInCU: 0xEC46, offset: 0x340A8, size: 0x8, addend: 0x0, symName: __ZNSt3__16vectorIN11expressions12expr_literalENS_9allocatorIS2_EEEC2B8ue170006Ev, symObjAddr: 0x17828, symBinAddr: 0x10002BF38, symSize: 0x2E8 }
  - { offsetInCU: 0xEC71, offset: 0x340D3, size: 0x8, addend: 0x0, symName: __ZNSt3__117__compressed_pairIPN11expressions12expr_literalENS_9allocatorIS2_EEEC1B8ue170006IDnNS_18__default_init_tagEEEOT_OT0_, symObjAddr: 0x17B10, symBinAddr: 0x10002C220, symSize: 0x3C }
  - { offsetInCU: 0xECC9, offset: 0x3412B, size: 0x8, addend: 0x0, symName: __ZNSt3__117__compressed_pairIPN11expressions12expr_literalENS_9allocatorIS2_EEEC2B8ue170006IDnNS_18__default_init_tagEEEOT_OT0_, symObjAddr: 0x17B4C, symBinAddr: 0x10002C25C, symSize: 0x40 }
  - { offsetInCU: 0xED21, offset: 0x34183, size: 0x8, addend: 0x0, symName: __ZNSt3__122__compressed_pair_elemINS_9allocatorIN11expressions12expr_literalEEELi1ELb1EEC2B8ue170006ENS_18__default_init_tagE, symObjAddr: 0x17B8C, symBinAddr: 0x10002C29C, symSize: 0x2C }
  - { offsetInCU: 0xED56, offset: 0x341B8, size: 0x8, addend: 0x0, symName: __ZNSt3__19allocatorIN11expressions12expr_literalEEC2B8ue170006Ev, symObjAddr: 0x17BB8, symBinAddr: 0x10002C2C8, symSize: 0x2C }
  - { offsetInCU: 0xED80, offset: 0x341E2, size: 0x8, addend: 0x0, symName: __ZNSt3__116__non_trivial_ifILb1ENS_9allocatorIN11expressions12expr_literalEEEEC2B8ue170006Ev, symObjAddr: 0x17BE4, symBinAddr: 0x10002C2F4, symSize: 0x14 }
  - { offsetInCU: 0xEDAA, offset: 0x3420C, size: 0x8, addend: 0x0, symName: __ZNSt3__16vectorIN3ast11program_errENS_9allocatorIS2_EEEC2B8ue170006Ev, symObjAddr: 0x17BF8, symBinAddr: 0x10002C308, symSize: 0x2E8 }
  - { offsetInCU: 0xEDD5, offset: 0x34237, size: 0x8, addend: 0x0, symName: __ZNSt3__117__compressed_pairIPN3ast11program_errENS_9allocatorIS2_EEEC1B8ue170006IDnNS_18__default_init_tagEEEOT_OT0_, symObjAddr: 0x17EE0, symBinAddr: 0x10002C5F0, symSize: 0x3C }
  - { offsetInCU: 0xEE2D, offset: 0x3428F, size: 0x8, addend: 0x0, symName: __ZNSt3__117__compressed_pairIPN3ast11program_errENS_9allocatorIS2_EEEC2B8ue170006IDnNS_18__default_init_tagEEEOT_OT0_, symObjAddr: 0x17F1C, symBinAddr: 0x10002C62C, symSize: 0x40 }
  - { offsetInCU: 0xEE85, offset: 0x342E7, size: 0x8, addend: 0x0, symName: __ZNSt3__122__compressed_pair_elemINS_9allocatorIN3ast11program_errEEELi1ELb1EEC2B8ue170006ENS_18__default_init_tagE, symObjAddr: 0x17F5C, symBinAddr: 0x10002C66C, symSize: 0x2C }
  - { offsetInCU: 0xEEBA, offset: 0x3431C, size: 0x8, addend: 0x0, symName: __ZNSt3__19allocatorIN3ast11program_errEEC2B8ue170006Ev, symObjAddr: 0x17F88, symBinAddr: 0x10002C698, symSize: 0x2C }
  - { offsetInCU: 0xEEE4, offset: 0x34346, size: 0x8, addend: 0x0, symName: __ZNSt3__116__non_trivial_ifILb1ENS_9allocatorIN3ast11program_errEEEEC2B8ue170006Ev, symObjAddr: 0x17FB4, symBinAddr: 0x10002C6C4, symSize: 0x14 }
  - { offsetInCU: 0xEF0E, offset: 0x34370, size: 0x8, addend: 0x0, symName: __ZNKSt3__16vectorIN3ast11program_errENS_9allocatorIS2_EEE5emptyB8ue170006Ev, symObjAddr: 0x17FC8, symBinAddr: 0x10002C6D8, symSize: 0xB0 }
  - { offsetInCU: 0xEF34, offset: 0x34396, size: 0x8, addend: 0x0, symName: __ZNSt3__16vectorIN3ast11program_errENS_9allocatorIS2_EEE5beginB8ue170006Ev, symObjAddr: 0x181C0, symBinAddr: 0x10002C788, symSize: 0x268 }
  - { offsetInCU: 0xEF5D, offset: 0x343BF, size: 0x8, addend: 0x0, symName: __ZNSt3__16vectorIN3ast11program_errENS_9allocatorIS2_EEE3endB8ue170006Ev, symObjAddr: 0x18428, symBinAddr: 0x10002C9F0, symSize: 0x26C }
  - { offsetInCU: 0xEF86, offset: 0x343E8, size: 0x8, addend: 0x0, symName: __ZNKSt3__111__wrap_iterIPN3ast11program_errEEdeB8ue170006Ev, symObjAddr: 0x186C8, symBinAddr: 0x10002CC90, symSize: 0x60 }
  - { offsetInCU: 0xEFAC, offset: 0x3440E, size: 0x8, addend: 0x0, symName: __ZNSt3__111__wrap_iterIPN3ast11program_errEEppB8ue170006Ev, symObjAddr: 0x18774, symBinAddr: 0x10002CCF0, symSize: 0x68 }
  - { offsetInCU: 0xEFD2, offset: 0x34434, size: 0x8, addend: 0x0, symName: __ZNSt3__16vectorIN3ast11program_errENS_9allocatorIS2_EEE11__make_iterB8ue170006EPS2_, symObjAddr: 0x1A61C, symBinAddr: 0x10002CD58, symSize: 0x1FC }
  - { offsetInCU: 0xF009, offset: 0x3446B, size: 0x8, addend: 0x0, symName: __ZNSt3__111__wrap_iterIPN3ast11program_errEEC1B8ue170006ES3_, symObjAddr: 0x1A818, symBinAddr: 0x10002CF54, symSize: 0x34 }
  - { offsetInCU: 0xF041, offset: 0x344A3, size: 0x8, addend: 0x0, symName: __ZNSt3__111__wrap_iterIPN3ast11program_errEEC2B8ue170006ES3_, symObjAddr: 0x1A84C, symBinAddr: 0x10002CF88, symSize: 0x70 }
  - { offsetInCU: 0xF079, offset: 0x344DB, size: 0x8, addend: 0x0, symName: __ZNKSt3__111__wrap_iterIPN3ast11program_errEE4baseB8ue170006Ev, symObjAddr: 0x1A904, symBinAddr: 0x10002D040, symSize: 0x60 }
  - { offsetInCU: 0x3B, offset: 0x34699, size: 0x8, addend: 0x0, symName: _.str, symObjAddr: 0x2F80, symBinAddr: 0x1000309A0, symSize: 0x0 }
  - { offsetInCU: 0x6B, offset: 0x346C9, size: 0x8, addend: 0x0, symName: _.str.1, symObjAddr: 0x2FA0, symBinAddr: 0x1000309C0, symSize: 0x0 }
  - { offsetInCU: 0x88, offset: 0x346E6, size: 0x8, addend: 0x0, symName: _.str.2, symObjAddr: 0x2FC0, symBinAddr: 0x1000309E0, symSize: 0x0 }
  - { offsetInCU: 0xA5, offset: 0x34703, size: 0x8, addend: 0x0, symName: _.str.3, symObjAddr: 0x3000, symBinAddr: 0x100030A20, symSize: 0x0 }
  - { offsetInCU: 0xC2, offset: 0x34720, size: 0x8, addend: 0x0, symName: _.str.4, symObjAddr: 0x3040, symBinAddr: 0x100030A60, symSize: 0x0 }
  - { offsetInCU: 0xE0, offset: 0x3473E, size: 0x8, addend: 0x0, symName: _.str.5, symObjAddr: 0x3060, symBinAddr: 0x100030A80, symSize: 0x0 }
  - { offsetInCU: 0x40D3, offset: 0x38731, size: 0x8, addend: 0x0, symName: __ZNSt3__1neB8ue170006IPcEEbRKNS_11__wrap_iterIT_EES6_, symObjAddr: 0xFF0, symBinAddr: 0x10002DF18, symSize: 0x34 }
  - { offsetInCU: 0x4116, offset: 0x38774, size: 0x8, addend: 0x0, symName: __ZNSt3__1neB8ue170006IPN10statements4stmtEEEbRKNS_11__wrap_iterIT_EES8_, symObjAddr: 0x1B28, symBinAddr: 0x10002EA24, symSize: 0x34 }
  - { offsetInCU: 0x4159, offset: 0x387B7, size: 0x8, addend: 0x0, symName: __ZNSt3__1eqB8ue170006IPcEEbRKNS_11__wrap_iterIT_EES6_, symObjAddr: 0x254C, symBinAddr: 0x10002EE84, symSize: 0x48 }
  - { offsetInCU: 0x419C, offset: 0x387FA, size: 0x8, addend: 0x0, symName: __ZNSt3__1eqB8ue170006IPN10statements4stmtEEEbRKNS_11__wrap_iterIT_EES8_, symObjAddr: 0x2D84, symBinAddr: 0x10002F1CC, symSize: 0x48 }
  - { offsetInCU: 0x7371, offset: 0x3B9CF, size: 0x8, addend: 0x0, symName: __Z16write_print_stmtNSt3__112basic_stringIcNS_11char_traitsIcEENS_9allocatorIcEEEEPN3ast7programEPS5_PKN10statements4stmtE, symObjAddr: 0x0, symBinAddr: 0x10002D138, symSize: 0x6C8 }
  - { offsetInCU: 0x7442, offset: 0x3BAA0, size: 0x8, addend: 0x0, symName: __ZN11expressions21expressions_container11get_literalENS_4exprE, symObjAddr: 0x6C8, symBinAddr: 0x10002D800, symSize: 0x264 }
  - { offsetInCU: 0x7489, offset: 0x3BAE7, size: 0x8, addend: 0x0, symName: __ZNSt3__112basic_stringIcNS_11char_traitsIcEENS_9allocatorIcEEE5beginB8ue170006Ev, symObjAddr: 0xB3C, symBinAddr: 0x10002DA64, symSize: 0x258 }
  - { offsetInCU: 0x74B0, offset: 0x3BB0E, size: 0x8, addend: 0x0, symName: __ZNSt3__112basic_stringIcNS_11char_traitsIcEENS_9allocatorIcEEE3endB8ue170006Ev, symObjAddr: 0xD94, symBinAddr: 0x10002DCBC, symSize: 0x25C }
  - { offsetInCU: 0x74D7, offset: 0x3BB35, size: 0x8, addend: 0x0, symName: __ZNKSt3__111__wrap_iterIPcEdeB8ue170006Ev, symObjAddr: 0x1024, symBinAddr: 0x10002DF4C, symSize: 0x60 }
  - { offsetInCU: 0x74FD, offset: 0x3BB5B, size: 0x8, addend: 0x0, symName: __ZNSt3__111__wrap_iterIPcEppB8ue170006Ev, symObjAddr: 0x1084, symBinAddr: 0x10002DFAC, symSize: 0x68 }
  - { offsetInCU: 0x7528, offset: 0x3BB86, size: 0x8, addend: 0x0, symName: __ZN7codegen3genENSt3__112basic_stringIcNS0_11char_traitsIcEENS0_9allocatorIcEEEEPN3ast7programE, symObjAddr: 0x10EC, symBinAddr: 0x10002E014, symSize: 0x53C }
  - { offsetInCU: 0x75C3, offset: 0x3BC21, size: 0x8, addend: 0x0, symName: __ZNSt3__16vectorIN10statements4stmtENS_9allocatorIS2_EEE5beginB8ue170006Ev, symObjAddr: 0x1654, symBinAddr: 0x10002E550, symSize: 0x268 }
  - { offsetInCU: 0x75EC, offset: 0x3BC4A, size: 0x8, addend: 0x0, symName: __ZNSt3__16vectorIN10statements4stmtENS_9allocatorIS2_EEE3endB8ue170006Ev, symObjAddr: 0x18BC, symBinAddr: 0x10002E7B8, symSize: 0x26C }
  - { offsetInCU: 0x7615, offset: 0x3BC73, size: 0x8, addend: 0x0, symName: __ZNKSt3__111__wrap_iterIPN10statements4stmtEEdeB8ue170006Ev, symObjAddr: 0x1B5C, symBinAddr: 0x10002EA58, symSize: 0x60 }
  - { offsetInCU: 0x763B, offset: 0x3BC99, size: 0x8, addend: 0x0, symName: __ZNSt3__111__wrap_iterIPN10statements4stmtEEppB8ue170006Ev, symObjAddr: 0x1BBC, symBinAddr: 0x10002EAB8, symSize: 0x68 }
  - { offsetInCU: 0x7661, offset: 0x3BCBF, size: 0x8, addend: 0x0, symName: __ZNSt3__16vectorIN11expressions12expr_literalENS_9allocatorIS2_EEE2atEm, symObjAddr: 0x1C24, symBinAddr: 0x10002EB20, symSize: 0xA4 }
  - { offsetInCU: 0x7698, offset: 0x3BCF6, size: 0x8, addend: 0x0, symName: __ZNKSt3__16vectorIN11expressions12expr_literalENS_9allocatorIS2_EEE20__throw_out_of_rangeB8ue170006Ev, symObjAddr: 0x1D78, symBinAddr: 0x10002EBC4, symSize: 0x20 }
  - { offsetInCU: 0x76BE, offset: 0x3BD1C, size: 0x8, addend: 0x0, symName: __ZNSt3__112basic_stringIcNS_11char_traitsIcEENS_9allocatorIcEEE15__make_iteratorB8ue170006EPc, symObjAddr: 0x1F2C, symBinAddr: 0x10002EBE4, symSize: 0x1FC }
  - { offsetInCU: 0x76F5, offset: 0x3BD53, size: 0x8, addend: 0x0, symName: __ZNSt3__111__wrap_iterIPcEC1B8ue170006ES1_, symObjAddr: 0x2188, symBinAddr: 0x10002EDE0, symSize: 0x34 }
  - { offsetInCU: 0x772D, offset: 0x3BD8B, size: 0x8, addend: 0x0, symName: __ZNSt3__111__wrap_iterIPcEC2B8ue170006ES1_, symObjAddr: 0x21BC, symBinAddr: 0x10002EE14, symSize: 0x70 }
  - { offsetInCU: 0x7765, offset: 0x3BDC3, size: 0x8, addend: 0x0, symName: __ZNKSt3__111__wrap_iterIPcE4baseB8ue170006Ev, symObjAddr: 0x2594, symBinAddr: 0x10002EECC, symSize: 0x60 }
  - { offsetInCU: 0x778B, offset: 0x3BDE9, size: 0x8, addend: 0x0, symName: __ZNSt3__16vectorIN10statements4stmtENS_9allocatorIS2_EEE11__make_iterB8ue170006EPS2_, symObjAddr: 0x2AE4, symBinAddr: 0x10002EF2C, symSize: 0x1FC }
  - { offsetInCU: 0x77C2, offset: 0x3BE20, size: 0x8, addend: 0x0, symName: __ZNSt3__111__wrap_iterIPN10statements4stmtEEC1B8ue170006ES3_, symObjAddr: 0x2CE0, symBinAddr: 0x10002F128, symSize: 0x34 }
  - { offsetInCU: 0x77FA, offset: 0x3BE58, size: 0x8, addend: 0x0, symName: __ZNSt3__111__wrap_iterIPN10statements4stmtEEC2B8ue170006ES3_, symObjAddr: 0x2D14, symBinAddr: 0x10002F15C, symSize: 0x70 }
  - { offsetInCU: 0x7832, offset: 0x3BE90, size: 0x8, addend: 0x0, symName: __ZNKSt3__111__wrap_iterIPN10statements4stmtEE4baseB8ue170006Ev, symObjAddr: 0x2DCC, symBinAddr: 0x10002F214, symSize: 0x60 }
...
